ARM GAS  C:\Users\Fischer\AppData\Local\Temp\ccrRMyaW.s 			page 1


   1              		.syntax unified
   2              		.cpu cortex-m3
   3              		.fpu softvfp
   4              		.eabi_attribute 20, 1
   5              		.eabi_attribute 21, 1
   6              		.eabi_attribute 23, 3
   7              		.eabi_attribute 24, 1
   8              		.eabi_attribute 25, 1
   9              		.eabi_attribute 26, 1
  10              		.eabi_attribute 30, 1
  11              		.eabi_attribute 34, 1
  12              		.eabi_attribute 18, 4
  13              		.thumb
  14              		.syntax unified
  15              		.file	"IMU_UART.c"
  16              		.text
  17              	.Ltext0:
  18              		.cfi_sections	.debug_frame
  19              		.section	.text.IMU_UART_Init,"ax",%progbits
  20              		.align	2
  21              		.global	IMU_UART_Init
  22              		.thumb
  23              		.thumb_func
  24              		.type	IMU_UART_Init, %function
  25              	IMU_UART_Init:
  26              	.LFB1:
  27              		.file 1 "Generated_Source\\PSoC5\\IMU_UART.c"
   1:Generated_Source\PSoC5/IMU_UART.c **** /*******************************************************************************
   2:Generated_Source\PSoC5/IMU_UART.c **** * File Name: IMU_UART.c
   3:Generated_Source\PSoC5/IMU_UART.c **** * Version 2.50
   4:Generated_Source\PSoC5/IMU_UART.c **** *
   5:Generated_Source\PSoC5/IMU_UART.c **** * Description:
   6:Generated_Source\PSoC5/IMU_UART.c **** *  This file provides all API functionality of the UART component
   7:Generated_Source\PSoC5/IMU_UART.c **** *
   8:Generated_Source\PSoC5/IMU_UART.c **** * Note:
   9:Generated_Source\PSoC5/IMU_UART.c **** *
  10:Generated_Source\PSoC5/IMU_UART.c **** ********************************************************************************
  11:Generated_Source\PSoC5/IMU_UART.c **** * Copyright 2008-2015, Cypress Semiconductor Corporation.  All rights reserved.
  12:Generated_Source\PSoC5/IMU_UART.c **** * You may use this file only in accordance with the license, terms, conditions,
  13:Generated_Source\PSoC5/IMU_UART.c **** * disclaimers, and limitations in the end user license agreement accompanying
  14:Generated_Source\PSoC5/IMU_UART.c **** * the software package with which this file was provided.
  15:Generated_Source\PSoC5/IMU_UART.c **** *******************************************************************************/
  16:Generated_Source\PSoC5/IMU_UART.c **** 
  17:Generated_Source\PSoC5/IMU_UART.c **** #include "IMU_UART.h"
  18:Generated_Source\PSoC5/IMU_UART.c **** #if (IMU_UART_INTERNAL_CLOCK_USED)
  19:Generated_Source\PSoC5/IMU_UART.c ****     #include "IMU_UART_IntClock.h"
  20:Generated_Source\PSoC5/IMU_UART.c **** #endif /* End IMU_UART_INTERNAL_CLOCK_USED */
  21:Generated_Source\PSoC5/IMU_UART.c **** 
  22:Generated_Source\PSoC5/IMU_UART.c **** 
  23:Generated_Source\PSoC5/IMU_UART.c **** /***************************************
  24:Generated_Source\PSoC5/IMU_UART.c **** * Global data allocation
  25:Generated_Source\PSoC5/IMU_UART.c **** ***************************************/
  26:Generated_Source\PSoC5/IMU_UART.c **** 
  27:Generated_Source\PSoC5/IMU_UART.c **** uint8 IMU_UART_initVar = 0u;
  28:Generated_Source\PSoC5/IMU_UART.c **** 
  29:Generated_Source\PSoC5/IMU_UART.c **** #if (IMU_UART_TX_INTERRUPT_ENABLED && IMU_UART_TX_ENABLED)
  30:Generated_Source\PSoC5/IMU_UART.c ****     volatile uint8 IMU_UART_txBuffer[IMU_UART_TX_BUFFER_SIZE];
ARM GAS  C:\Users\Fischer\AppData\Local\Temp\ccrRMyaW.s 			page 2


  31:Generated_Source\PSoC5/IMU_UART.c ****     volatile uint8 IMU_UART_txBufferRead = 0u;
  32:Generated_Source\PSoC5/IMU_UART.c ****     uint8 IMU_UART_txBufferWrite = 0u;
  33:Generated_Source\PSoC5/IMU_UART.c **** #endif /* (IMU_UART_TX_INTERRUPT_ENABLED && IMU_UART_TX_ENABLED) */
  34:Generated_Source\PSoC5/IMU_UART.c **** 
  35:Generated_Source\PSoC5/IMU_UART.c **** #if (IMU_UART_RX_INTERRUPT_ENABLED && (IMU_UART_RX_ENABLED || IMU_UART_HD_ENABLED))
  36:Generated_Source\PSoC5/IMU_UART.c ****     uint8 IMU_UART_errorStatus = 0u;
  37:Generated_Source\PSoC5/IMU_UART.c ****     volatile uint8 IMU_UART_rxBuffer[IMU_UART_RX_BUFFER_SIZE];
  38:Generated_Source\PSoC5/IMU_UART.c ****     volatile uint8 IMU_UART_rxBufferRead  = 0u;
  39:Generated_Source\PSoC5/IMU_UART.c ****     volatile uint8 IMU_UART_rxBufferWrite = 0u;
  40:Generated_Source\PSoC5/IMU_UART.c ****     volatile uint8 IMU_UART_rxBufferLoopDetect = 0u;
  41:Generated_Source\PSoC5/IMU_UART.c ****     volatile uint8 IMU_UART_rxBufferOverflow   = 0u;
  42:Generated_Source\PSoC5/IMU_UART.c ****     #if (IMU_UART_RXHW_ADDRESS_ENABLED)
  43:Generated_Source\PSoC5/IMU_UART.c ****         volatile uint8 IMU_UART_rxAddressMode = IMU_UART_RX_ADDRESS_MODE;
  44:Generated_Source\PSoC5/IMU_UART.c ****         volatile uint8 IMU_UART_rxAddressDetected = 0u;
  45:Generated_Source\PSoC5/IMU_UART.c ****     #endif /* (IMU_UART_RXHW_ADDRESS_ENABLED) */
  46:Generated_Source\PSoC5/IMU_UART.c **** #endif /* (IMU_UART_RX_INTERRUPT_ENABLED && (IMU_UART_RX_ENABLED || IMU_UART_HD_ENABLED)) */
  47:Generated_Source\PSoC5/IMU_UART.c **** 
  48:Generated_Source\PSoC5/IMU_UART.c **** 
  49:Generated_Source\PSoC5/IMU_UART.c **** /*******************************************************************************
  50:Generated_Source\PSoC5/IMU_UART.c **** * Function Name: IMU_UART_Start
  51:Generated_Source\PSoC5/IMU_UART.c **** ********************************************************************************
  52:Generated_Source\PSoC5/IMU_UART.c **** *
  53:Generated_Source\PSoC5/IMU_UART.c **** * Summary:
  54:Generated_Source\PSoC5/IMU_UART.c **** *  This is the preferred method to begin component operation.
  55:Generated_Source\PSoC5/IMU_UART.c **** *  IMU_UART_Start() sets the initVar variable, calls the
  56:Generated_Source\PSoC5/IMU_UART.c **** *  IMU_UART_Init() function, and then calls the
  57:Generated_Source\PSoC5/IMU_UART.c **** *  IMU_UART_Enable() function.
  58:Generated_Source\PSoC5/IMU_UART.c **** *
  59:Generated_Source\PSoC5/IMU_UART.c **** * Parameters:
  60:Generated_Source\PSoC5/IMU_UART.c **** *  None.
  61:Generated_Source\PSoC5/IMU_UART.c **** *
  62:Generated_Source\PSoC5/IMU_UART.c **** * Return:
  63:Generated_Source\PSoC5/IMU_UART.c **** *  None.
  64:Generated_Source\PSoC5/IMU_UART.c **** *
  65:Generated_Source\PSoC5/IMU_UART.c **** * Global variables:
  66:Generated_Source\PSoC5/IMU_UART.c **** *  The IMU_UART_intiVar variable is used to indicate initial
  67:Generated_Source\PSoC5/IMU_UART.c **** *  configuration of this component. The variable is initialized to zero (0u)
  68:Generated_Source\PSoC5/IMU_UART.c **** *  and set to one (1u) the first time IMU_UART_Start() is called. This
  69:Generated_Source\PSoC5/IMU_UART.c **** *  allows for component initialization without re-initialization in all
  70:Generated_Source\PSoC5/IMU_UART.c **** *  subsequent calls to the IMU_UART_Start() routine.
  71:Generated_Source\PSoC5/IMU_UART.c **** *
  72:Generated_Source\PSoC5/IMU_UART.c **** * Reentrant:
  73:Generated_Source\PSoC5/IMU_UART.c **** *  No.
  74:Generated_Source\PSoC5/IMU_UART.c **** *
  75:Generated_Source\PSoC5/IMU_UART.c **** *******************************************************************************/
  76:Generated_Source\PSoC5/IMU_UART.c **** void IMU_UART_Start(void) 
  77:Generated_Source\PSoC5/IMU_UART.c **** {
  78:Generated_Source\PSoC5/IMU_UART.c ****     /* If not initialized then initialize all required hardware and software */
  79:Generated_Source\PSoC5/IMU_UART.c ****     if(IMU_UART_initVar == 0u)
  80:Generated_Source\PSoC5/IMU_UART.c ****     {
  81:Generated_Source\PSoC5/IMU_UART.c ****         IMU_UART_Init();
  82:Generated_Source\PSoC5/IMU_UART.c ****         IMU_UART_initVar = 1u;
  83:Generated_Source\PSoC5/IMU_UART.c ****     }
  84:Generated_Source\PSoC5/IMU_UART.c **** 
  85:Generated_Source\PSoC5/IMU_UART.c ****     IMU_UART_Enable();
  86:Generated_Source\PSoC5/IMU_UART.c **** }
  87:Generated_Source\PSoC5/IMU_UART.c **** 
ARM GAS  C:\Users\Fischer\AppData\Local\Temp\ccrRMyaW.s 			page 3


  88:Generated_Source\PSoC5/IMU_UART.c **** 
  89:Generated_Source\PSoC5/IMU_UART.c **** /*******************************************************************************
  90:Generated_Source\PSoC5/IMU_UART.c **** * Function Name: IMU_UART_Init
  91:Generated_Source\PSoC5/IMU_UART.c **** ********************************************************************************
  92:Generated_Source\PSoC5/IMU_UART.c **** *
  93:Generated_Source\PSoC5/IMU_UART.c **** * Summary:
  94:Generated_Source\PSoC5/IMU_UART.c **** *  Initializes or restores the component according to the customizer Configure
  95:Generated_Source\PSoC5/IMU_UART.c **** *  dialog settings. It is not necessary to call IMU_UART_Init() because
  96:Generated_Source\PSoC5/IMU_UART.c **** *  the IMU_UART_Start() API calls this function and is the preferred
  97:Generated_Source\PSoC5/IMU_UART.c **** *  method to begin component operation.
  98:Generated_Source\PSoC5/IMU_UART.c **** *
  99:Generated_Source\PSoC5/IMU_UART.c **** * Parameters:
 100:Generated_Source\PSoC5/IMU_UART.c **** *  None.
 101:Generated_Source\PSoC5/IMU_UART.c **** *
 102:Generated_Source\PSoC5/IMU_UART.c **** * Return:
 103:Generated_Source\PSoC5/IMU_UART.c **** *  None.
 104:Generated_Source\PSoC5/IMU_UART.c **** *
 105:Generated_Source\PSoC5/IMU_UART.c **** *******************************************************************************/
 106:Generated_Source\PSoC5/IMU_UART.c **** void IMU_UART_Init(void) 
 107:Generated_Source\PSoC5/IMU_UART.c **** {
  28              		.loc 1 107 0
  29              		.cfi_startproc
  30              		@ args = 0, pretend = 0, frame = 0
  31              		@ frame_needed = 0, uses_anonymous_args = 0
  32 0000 08B5     		push	{r3, lr}
  33              		.cfi_def_cfa_offset 8
  34              		.cfi_offset 3, -8
  35              		.cfi_offset 14, -4
 108:Generated_Source\PSoC5/IMU_UART.c ****     #if(IMU_UART_RX_ENABLED || IMU_UART_HD_ENABLED)
 109:Generated_Source\PSoC5/IMU_UART.c **** 
 110:Generated_Source\PSoC5/IMU_UART.c ****         #if (IMU_UART_RX_INTERRUPT_ENABLED)
 111:Generated_Source\PSoC5/IMU_UART.c ****             /* Set RX interrupt vector and priority */
 112:Generated_Source\PSoC5/IMU_UART.c ****             (void) CyIntSetVector(IMU_UART_RX_VECT_NUM, &IMU_UART_RXISR);
  36              		.loc 1 112 0
  37 0002 0949     		ldr	r1, .L3
  38 0004 0020     		movs	r0, #0
  39 0006 FFF7FEFF 		bl	CyIntSetVector
  40              	.LVL0:
 113:Generated_Source\PSoC5/IMU_UART.c ****             CyIntSetPriority(IMU_UART_RX_VECT_NUM, IMU_UART_RX_PRIOR_NUM);
  41              		.loc 1 113 0
  42 000a 0721     		movs	r1, #7
  43 000c 0020     		movs	r0, #0
  44 000e FFF7FEFF 		bl	CyIntSetPriority
  45              	.LVL1:
 114:Generated_Source\PSoC5/IMU_UART.c ****             IMU_UART_errorStatus = 0u;
  46              		.loc 1 114 0
  47 0012 0022     		movs	r2, #0
  48 0014 054B     		ldr	r3, .L3+4
  49 0016 1A70     		strb	r2, [r3]
 115:Generated_Source\PSoC5/IMU_UART.c ****         #endif /* (IMU_UART_RX_INTERRUPT_ENABLED) */
 116:Generated_Source\PSoC5/IMU_UART.c **** 
 117:Generated_Source\PSoC5/IMU_UART.c ****         #if (IMU_UART_RXHW_ADDRESS_ENABLED)
 118:Generated_Source\PSoC5/IMU_UART.c ****             IMU_UART_SetRxAddressMode(IMU_UART_RX_ADDRESS_MODE);
 119:Generated_Source\PSoC5/IMU_UART.c ****             IMU_UART_SetRxAddress1(IMU_UART_RX_HW_ADDRESS1);
 120:Generated_Source\PSoC5/IMU_UART.c ****             IMU_UART_SetRxAddress2(IMU_UART_RX_HW_ADDRESS2);
 121:Generated_Source\PSoC5/IMU_UART.c ****         #endif /* End IMU_UART_RXHW_ADDRESS_ENABLED */
 122:Generated_Source\PSoC5/IMU_UART.c **** 
ARM GAS  C:\Users\Fischer\AppData\Local\Temp\ccrRMyaW.s 			page 4


 123:Generated_Source\PSoC5/IMU_UART.c ****         /* Init Count7 period */
 124:Generated_Source\PSoC5/IMU_UART.c ****         IMU_UART_RXBITCTR_PERIOD_REG = IMU_UART_RXBITCTR_INIT;
  50              		.loc 1 124 0
  51 0018 7222     		movs	r2, #114
  52 001a 054B     		ldr	r3, .L3+8
  53 001c 1A70     		strb	r2, [r3]
 125:Generated_Source\PSoC5/IMU_UART.c ****         /* Configure the Initial RX interrupt mask */
 126:Generated_Source\PSoC5/IMU_UART.c ****         IMU_UART_RXSTATUS_MASK_REG  = IMU_UART_INIT_RX_INTERRUPTS_MASK;
  54              		.loc 1 126 0
  55 001e 2022     		movs	r2, #32
  56 0020 0133     		adds	r3, r3, #1
  57 0022 1A70     		strb	r2, [r3]
  58 0024 08BD     		pop	{r3, pc}
  59              	.L4:
  60 0026 00BF     		.align	2
  61              	.L3:
  62 0028 00000000 		.word	IMU_UART_RXISR
  63 002c 00000000 		.word	.LANCHOR0
  64 0030 85640040 		.word	1073767557
  65              		.cfi_endproc
  66              	.LFE1:
  67              		.size	IMU_UART_Init, .-IMU_UART_Init
  68              		.section	.text.IMU_UART_Enable,"ax",%progbits
  69              		.align	2
  70              		.global	IMU_UART_Enable
  71              		.thumb
  72              		.thumb_func
  73              		.type	IMU_UART_Enable, %function
  74              	IMU_UART_Enable:
  75              	.LFB2:
 127:Generated_Source\PSoC5/IMU_UART.c ****     #endif /* End IMU_UART_RX_ENABLED || IMU_UART_HD_ENABLED*/
 128:Generated_Source\PSoC5/IMU_UART.c **** 
 129:Generated_Source\PSoC5/IMU_UART.c ****     #if(IMU_UART_TX_ENABLED)
 130:Generated_Source\PSoC5/IMU_UART.c ****         #if (IMU_UART_TX_INTERRUPT_ENABLED)
 131:Generated_Source\PSoC5/IMU_UART.c ****             /* Set TX interrupt vector and priority */
 132:Generated_Source\PSoC5/IMU_UART.c ****             (void) CyIntSetVector(IMU_UART_TX_VECT_NUM, &IMU_UART_TXISR);
 133:Generated_Source\PSoC5/IMU_UART.c ****             CyIntSetPriority(IMU_UART_TX_VECT_NUM, IMU_UART_TX_PRIOR_NUM);
 134:Generated_Source\PSoC5/IMU_UART.c ****         #endif /* (IMU_UART_TX_INTERRUPT_ENABLED) */
 135:Generated_Source\PSoC5/IMU_UART.c **** 
 136:Generated_Source\PSoC5/IMU_UART.c ****         /* Write Counter Value for TX Bit Clk Generator*/
 137:Generated_Source\PSoC5/IMU_UART.c ****         #if (IMU_UART_TXCLKGEN_DP)
 138:Generated_Source\PSoC5/IMU_UART.c ****             IMU_UART_TXBITCLKGEN_CTR_REG = IMU_UART_BIT_CENTER;
 139:Generated_Source\PSoC5/IMU_UART.c ****             IMU_UART_TXBITCLKTX_COMPLETE_REG = ((IMU_UART_NUMBER_OF_DATA_BITS +
 140:Generated_Source\PSoC5/IMU_UART.c ****                         IMU_UART_NUMBER_OF_START_BIT) * IMU_UART_OVER_SAMPLE_COUNT) - 1u;
 141:Generated_Source\PSoC5/IMU_UART.c ****         #else
 142:Generated_Source\PSoC5/IMU_UART.c ****             IMU_UART_TXBITCTR_PERIOD_REG = ((IMU_UART_NUMBER_OF_DATA_BITS +
 143:Generated_Source\PSoC5/IMU_UART.c ****                         IMU_UART_NUMBER_OF_START_BIT) * IMU_UART_OVER_SAMPLE_8) - 1u;
 144:Generated_Source\PSoC5/IMU_UART.c ****         #endif /* End IMU_UART_TXCLKGEN_DP */
 145:Generated_Source\PSoC5/IMU_UART.c **** 
 146:Generated_Source\PSoC5/IMU_UART.c ****         /* Configure the Initial TX interrupt mask */
 147:Generated_Source\PSoC5/IMU_UART.c ****         #if (IMU_UART_TX_INTERRUPT_ENABLED)
 148:Generated_Source\PSoC5/IMU_UART.c ****             IMU_UART_TXSTATUS_MASK_REG = IMU_UART_TX_STS_FIFO_EMPTY;
 149:Generated_Source\PSoC5/IMU_UART.c ****         #else
 150:Generated_Source\PSoC5/IMU_UART.c ****             IMU_UART_TXSTATUS_MASK_REG = IMU_UART_INIT_TX_INTERRUPTS_MASK;
 151:Generated_Source\PSoC5/IMU_UART.c ****         #endif /*End IMU_UART_TX_INTERRUPT_ENABLED*/
 152:Generated_Source\PSoC5/IMU_UART.c **** 
 153:Generated_Source\PSoC5/IMU_UART.c ****     #endif /* End IMU_UART_TX_ENABLED */
ARM GAS  C:\Users\Fischer\AppData\Local\Temp\ccrRMyaW.s 			page 5


 154:Generated_Source\PSoC5/IMU_UART.c **** 
 155:Generated_Source\PSoC5/IMU_UART.c ****     #if(IMU_UART_PARITY_TYPE_SW)  /* Write Parity to Control Register */
 156:Generated_Source\PSoC5/IMU_UART.c ****         IMU_UART_WriteControlRegister( \
 157:Generated_Source\PSoC5/IMU_UART.c ****             (IMU_UART_ReadControlRegister() & (uint8)~IMU_UART_CTRL_PARITY_TYPE_MASK) | \
 158:Generated_Source\PSoC5/IMU_UART.c ****             (uint8)(IMU_UART_PARITY_TYPE << IMU_UART_CTRL_PARITY_TYPE0_SHIFT) );
 159:Generated_Source\PSoC5/IMU_UART.c ****     #endif /* End IMU_UART_PARITY_TYPE_SW */
 160:Generated_Source\PSoC5/IMU_UART.c **** }
 161:Generated_Source\PSoC5/IMU_UART.c **** 
 162:Generated_Source\PSoC5/IMU_UART.c **** 
 163:Generated_Source\PSoC5/IMU_UART.c **** /*******************************************************************************
 164:Generated_Source\PSoC5/IMU_UART.c **** * Function Name: IMU_UART_Enable
 165:Generated_Source\PSoC5/IMU_UART.c **** ********************************************************************************
 166:Generated_Source\PSoC5/IMU_UART.c **** *
 167:Generated_Source\PSoC5/IMU_UART.c **** * Summary:
 168:Generated_Source\PSoC5/IMU_UART.c **** *  Activates the hardware and begins component operation. It is not necessary
 169:Generated_Source\PSoC5/IMU_UART.c **** *  to call IMU_UART_Enable() because the IMU_UART_Start() API
 170:Generated_Source\PSoC5/IMU_UART.c **** *  calls this function, which is the preferred method to begin component
 171:Generated_Source\PSoC5/IMU_UART.c **** *  operation.
 172:Generated_Source\PSoC5/IMU_UART.c **** 
 173:Generated_Source\PSoC5/IMU_UART.c **** * Parameters:
 174:Generated_Source\PSoC5/IMU_UART.c **** *  None.
 175:Generated_Source\PSoC5/IMU_UART.c **** *
 176:Generated_Source\PSoC5/IMU_UART.c **** * Return:
 177:Generated_Source\PSoC5/IMU_UART.c **** *  None.
 178:Generated_Source\PSoC5/IMU_UART.c **** *
 179:Generated_Source\PSoC5/IMU_UART.c **** * Global Variables:
 180:Generated_Source\PSoC5/IMU_UART.c **** *  IMU_UART_rxAddressDetected - set to initial state (0).
 181:Generated_Source\PSoC5/IMU_UART.c **** *
 182:Generated_Source\PSoC5/IMU_UART.c **** *******************************************************************************/
 183:Generated_Source\PSoC5/IMU_UART.c **** void IMU_UART_Enable(void) 
 184:Generated_Source\PSoC5/IMU_UART.c **** {
  76              		.loc 1 184 0
  77              		.cfi_startproc
  78              		@ args = 0, pretend = 0, frame = 0
  79              		@ frame_needed = 0, uses_anonymous_args = 0
  80 0000 10B5     		push	{r4, lr}
  81              		.cfi_def_cfa_offset 8
  82              		.cfi_offset 4, -8
  83              		.cfi_offset 14, -4
 185:Generated_Source\PSoC5/IMU_UART.c ****     uint8 enableInterrupts;
 186:Generated_Source\PSoC5/IMU_UART.c ****     enableInterrupts = CyEnterCriticalSection();
  84              		.loc 1 186 0
  85 0002 FFF7FEFF 		bl	CyEnterCriticalSection
  86              	.LVL2:
  87 0006 0446     		mov	r4, r0
  88              	.LVL3:
 187:Generated_Source\PSoC5/IMU_UART.c **** 
 188:Generated_Source\PSoC5/IMU_UART.c ****     #if (IMU_UART_RX_ENABLED || IMU_UART_HD_ENABLED)
 189:Generated_Source\PSoC5/IMU_UART.c ****         /* RX Counter (Count7) Enable */
 190:Generated_Source\PSoC5/IMU_UART.c ****         IMU_UART_RXBITCTR_CONTROL_REG |= IMU_UART_CNTR_ENABLE;
  89              		.loc 1 190 0
  90 0008 094A     		ldr	r2, .L7
  91 000a 1378     		ldrb	r3, [r2]	@ zero_extendqisi2
  92 000c 43F02003 		orr	r3, r3, #32
  93 0010 1370     		strb	r3, [r2]
 191:Generated_Source\PSoC5/IMU_UART.c **** 
 192:Generated_Source\PSoC5/IMU_UART.c ****         /* Enable the RX Interrupt */
ARM GAS  C:\Users\Fischer\AppData\Local\Temp\ccrRMyaW.s 			page 6


 193:Generated_Source\PSoC5/IMU_UART.c ****         IMU_UART_RXSTATUS_ACTL_REG  |= IMU_UART_INT_ENABLE;
  94              		.loc 1 193 0
  95 0012 0132     		adds	r2, r2, #1
  96 0014 1378     		ldrb	r3, [r2]	@ zero_extendqisi2
  97 0016 43F01003 		orr	r3, r3, #16
  98 001a 1370     		strb	r3, [r2]
 194:Generated_Source\PSoC5/IMU_UART.c **** 
 195:Generated_Source\PSoC5/IMU_UART.c ****         #if (IMU_UART_RX_INTERRUPT_ENABLED)
 196:Generated_Source\PSoC5/IMU_UART.c ****             IMU_UART_EnableRxInt();
  99              		.loc 1 196 0
 100 001c 0122     		movs	r2, #1
 101 001e 054B     		ldr	r3, .L7+4
 102 0020 1A60     		str	r2, [r3]
 197:Generated_Source\PSoC5/IMU_UART.c **** 
 198:Generated_Source\PSoC5/IMU_UART.c ****             #if (IMU_UART_RXHW_ADDRESS_ENABLED)
 199:Generated_Source\PSoC5/IMU_UART.c ****                 IMU_UART_rxAddressDetected = 0u;
 200:Generated_Source\PSoC5/IMU_UART.c ****             #endif /* (IMU_UART_RXHW_ADDRESS_ENABLED) */
 201:Generated_Source\PSoC5/IMU_UART.c ****         #endif /* (IMU_UART_RX_INTERRUPT_ENABLED) */
 202:Generated_Source\PSoC5/IMU_UART.c ****     #endif /* (IMU_UART_RX_ENABLED || IMU_UART_HD_ENABLED) */
 203:Generated_Source\PSoC5/IMU_UART.c **** 
 204:Generated_Source\PSoC5/IMU_UART.c ****     #if(IMU_UART_TX_ENABLED)
 205:Generated_Source\PSoC5/IMU_UART.c ****         /* TX Counter (DP/Count7) Enable */
 206:Generated_Source\PSoC5/IMU_UART.c ****         #if(!IMU_UART_TXCLKGEN_DP)
 207:Generated_Source\PSoC5/IMU_UART.c ****             IMU_UART_TXBITCTR_CONTROL_REG |= IMU_UART_CNTR_ENABLE;
 208:Generated_Source\PSoC5/IMU_UART.c ****         #endif /* End IMU_UART_TXCLKGEN_DP */
 209:Generated_Source\PSoC5/IMU_UART.c **** 
 210:Generated_Source\PSoC5/IMU_UART.c ****         /* Enable the TX Interrupt */
 211:Generated_Source\PSoC5/IMU_UART.c ****         IMU_UART_TXSTATUS_ACTL_REG |= IMU_UART_INT_ENABLE;
 212:Generated_Source\PSoC5/IMU_UART.c ****         #if (IMU_UART_TX_INTERRUPT_ENABLED)
 213:Generated_Source\PSoC5/IMU_UART.c ****             IMU_UART_ClearPendingTxInt(); /* Clear history of TX_NOT_EMPTY */
 214:Generated_Source\PSoC5/IMU_UART.c ****             IMU_UART_EnableTxInt();
 215:Generated_Source\PSoC5/IMU_UART.c ****         #endif /* (IMU_UART_TX_INTERRUPT_ENABLED) */
 216:Generated_Source\PSoC5/IMU_UART.c ****      #endif /* (IMU_UART_TX_INTERRUPT_ENABLED) */
 217:Generated_Source\PSoC5/IMU_UART.c **** 
 218:Generated_Source\PSoC5/IMU_UART.c ****     #if (IMU_UART_INTERNAL_CLOCK_USED)
 219:Generated_Source\PSoC5/IMU_UART.c ****         IMU_UART_IntClock_Start();  /* Enable the clock */
 103              		.loc 1 219 0
 104 0022 FFF7FEFF 		bl	IMU_UART_IntClock_Start
 105              	.LVL4:
 220:Generated_Source\PSoC5/IMU_UART.c ****     #endif /* (IMU_UART_INTERNAL_CLOCK_USED) */
 221:Generated_Source\PSoC5/IMU_UART.c **** 
 222:Generated_Source\PSoC5/IMU_UART.c ****     CyExitCriticalSection(enableInterrupts);
 106              		.loc 1 222 0
 107 0026 2046     		mov	r0, r4
 108 0028 FFF7FEFF 		bl	CyExitCriticalSection
 109              	.LVL5:
 110 002c 10BD     		pop	{r4, pc}
 111              	.LVL6:
 112              	.L8:
 113 002e 00BF     		.align	2
 114              	.L7:
 115 0030 95640040 		.word	1073767573
 116 0034 00E100E0 		.word	-536813312
 117              		.cfi_endproc
 118              	.LFE2:
 119              		.size	IMU_UART_Enable, .-IMU_UART_Enable
 120              		.section	.text.IMU_UART_Start,"ax",%progbits
ARM GAS  C:\Users\Fischer\AppData\Local\Temp\ccrRMyaW.s 			page 7


 121              		.align	2
 122              		.global	IMU_UART_Start
 123              		.thumb
 124              		.thumb_func
 125              		.type	IMU_UART_Start, %function
 126              	IMU_UART_Start:
 127              	.LFB0:
  77:Generated_Source\PSoC5/IMU_UART.c ****     /* If not initialized then initialize all required hardware and software */
 128              		.loc 1 77 0
 129              		.cfi_startproc
 130              		@ args = 0, pretend = 0, frame = 0
 131              		@ frame_needed = 0, uses_anonymous_args = 0
 132 0000 08B5     		push	{r3, lr}
 133              		.cfi_def_cfa_offset 8
 134              		.cfi_offset 3, -8
 135              		.cfi_offset 14, -4
  79:Generated_Source\PSoC5/IMU_UART.c ****     {
 136              		.loc 1 79 0
 137 0002 054B     		ldr	r3, .L12
 138 0004 5B78     		ldrb	r3, [r3, #1]	@ zero_extendqisi2
 139 0006 23B9     		cbnz	r3, .L10
  81:Generated_Source\PSoC5/IMU_UART.c ****         IMU_UART_initVar = 1u;
 140              		.loc 1 81 0
 141 0008 FFF7FEFF 		bl	IMU_UART_Init
 142              	.LVL7:
  82:Generated_Source\PSoC5/IMU_UART.c ****     }
 143              		.loc 1 82 0
 144 000c 0122     		movs	r2, #1
 145 000e 024B     		ldr	r3, .L12
 146 0010 5A70     		strb	r2, [r3, #1]
 147              	.L10:
  85:Generated_Source\PSoC5/IMU_UART.c **** }
 148              		.loc 1 85 0
 149 0012 FFF7FEFF 		bl	IMU_UART_Enable
 150              	.LVL8:
 151 0016 08BD     		pop	{r3, pc}
 152              	.L13:
 153              		.align	2
 154              	.L12:
 155 0018 00000000 		.word	.LANCHOR0
 156              		.cfi_endproc
 157              	.LFE0:
 158              		.size	IMU_UART_Start, .-IMU_UART_Start
 159              		.section	.text.IMU_UART_Stop,"ax",%progbits
 160              		.align	2
 161              		.global	IMU_UART_Stop
 162              		.thumb
 163              		.thumb_func
 164              		.type	IMU_UART_Stop, %function
 165              	IMU_UART_Stop:
 166              	.LFB3:
 223:Generated_Source\PSoC5/IMU_UART.c **** }
 224:Generated_Source\PSoC5/IMU_UART.c **** 
 225:Generated_Source\PSoC5/IMU_UART.c **** 
 226:Generated_Source\PSoC5/IMU_UART.c **** /*******************************************************************************
 227:Generated_Source\PSoC5/IMU_UART.c **** * Function Name: IMU_UART_Stop
 228:Generated_Source\PSoC5/IMU_UART.c **** ********************************************************************************
ARM GAS  C:\Users\Fischer\AppData\Local\Temp\ccrRMyaW.s 			page 8


 229:Generated_Source\PSoC5/IMU_UART.c **** *
 230:Generated_Source\PSoC5/IMU_UART.c **** * Summary:
 231:Generated_Source\PSoC5/IMU_UART.c **** *  Disables the UART operation.
 232:Generated_Source\PSoC5/IMU_UART.c **** *
 233:Generated_Source\PSoC5/IMU_UART.c **** * Parameters:
 234:Generated_Source\PSoC5/IMU_UART.c **** *  None.
 235:Generated_Source\PSoC5/IMU_UART.c **** *
 236:Generated_Source\PSoC5/IMU_UART.c **** * Return:
 237:Generated_Source\PSoC5/IMU_UART.c **** *  None.
 238:Generated_Source\PSoC5/IMU_UART.c **** *
 239:Generated_Source\PSoC5/IMU_UART.c **** *******************************************************************************/
 240:Generated_Source\PSoC5/IMU_UART.c **** void IMU_UART_Stop(void) 
 241:Generated_Source\PSoC5/IMU_UART.c **** {
 167              		.loc 1 241 0
 168              		.cfi_startproc
 169              		@ args = 0, pretend = 0, frame = 0
 170              		@ frame_needed = 0, uses_anonymous_args = 0
 171 0000 10B5     		push	{r4, lr}
 172              		.cfi_def_cfa_offset 8
 173              		.cfi_offset 4, -8
 174              		.cfi_offset 14, -4
 242:Generated_Source\PSoC5/IMU_UART.c ****     uint8 enableInterrupts;
 243:Generated_Source\PSoC5/IMU_UART.c ****     enableInterrupts = CyEnterCriticalSection();
 175              		.loc 1 243 0
 176 0002 FFF7FEFF 		bl	CyEnterCriticalSection
 177              	.LVL9:
 178 0006 0446     		mov	r4, r0
 179              	.LVL10:
 244:Generated_Source\PSoC5/IMU_UART.c **** 
 245:Generated_Source\PSoC5/IMU_UART.c ****     /* Write Bit Counter Disable */
 246:Generated_Source\PSoC5/IMU_UART.c ****     #if (IMU_UART_RX_ENABLED || IMU_UART_HD_ENABLED)
 247:Generated_Source\PSoC5/IMU_UART.c ****         IMU_UART_RXBITCTR_CONTROL_REG &= (uint8) ~IMU_UART_CNTR_ENABLE;
 180              		.loc 1 247 0
 181 0008 094A     		ldr	r2, .L16
 182 000a 1378     		ldrb	r3, [r2]	@ zero_extendqisi2
 183 000c 03F0DF03 		and	r3, r3, #223
 184 0010 1370     		strb	r3, [r2]
 248:Generated_Source\PSoC5/IMU_UART.c ****     #endif /* (IMU_UART_RX_ENABLED || IMU_UART_HD_ENABLED) */
 249:Generated_Source\PSoC5/IMU_UART.c **** 
 250:Generated_Source\PSoC5/IMU_UART.c ****     #if (IMU_UART_TX_ENABLED)
 251:Generated_Source\PSoC5/IMU_UART.c ****         #if(!IMU_UART_TXCLKGEN_DP)
 252:Generated_Source\PSoC5/IMU_UART.c ****             IMU_UART_TXBITCTR_CONTROL_REG &= (uint8) ~IMU_UART_CNTR_ENABLE;
 253:Generated_Source\PSoC5/IMU_UART.c ****         #endif /* (!IMU_UART_TXCLKGEN_DP) */
 254:Generated_Source\PSoC5/IMU_UART.c ****     #endif /* (IMU_UART_TX_ENABLED) */
 255:Generated_Source\PSoC5/IMU_UART.c **** 
 256:Generated_Source\PSoC5/IMU_UART.c ****     #if (IMU_UART_INTERNAL_CLOCK_USED)
 257:Generated_Source\PSoC5/IMU_UART.c ****         IMU_UART_IntClock_Stop();   /* Disable the clock */
 185              		.loc 1 257 0
 186 0012 FFF7FEFF 		bl	IMU_UART_IntClock_Stop
 187              	.LVL11:
 258:Generated_Source\PSoC5/IMU_UART.c ****     #endif /* (IMU_UART_INTERNAL_CLOCK_USED) */
 259:Generated_Source\PSoC5/IMU_UART.c **** 
 260:Generated_Source\PSoC5/IMU_UART.c ****     /* Disable internal interrupt component */
 261:Generated_Source\PSoC5/IMU_UART.c ****     #if (IMU_UART_RX_ENABLED || IMU_UART_HD_ENABLED)
 262:Generated_Source\PSoC5/IMU_UART.c ****         IMU_UART_RXSTATUS_ACTL_REG  &= (uint8) ~IMU_UART_INT_ENABLE;
 188              		.loc 1 262 0
 189 0016 074A     		ldr	r2, .L16+4
ARM GAS  C:\Users\Fischer\AppData\Local\Temp\ccrRMyaW.s 			page 9


 190 0018 1378     		ldrb	r3, [r2]	@ zero_extendqisi2
 191 001a 03F0EF03 		and	r3, r3, #239
 192 001e 1370     		strb	r3, [r2]
 263:Generated_Source\PSoC5/IMU_UART.c **** 
 264:Generated_Source\PSoC5/IMU_UART.c ****         #if (IMU_UART_RX_INTERRUPT_ENABLED)
 265:Generated_Source\PSoC5/IMU_UART.c ****             IMU_UART_DisableRxInt();
 193              		.loc 1 265 0
 194 0020 0122     		movs	r2, #1
 195 0022 054B     		ldr	r3, .L16+8
 196 0024 1A60     		str	r2, [r3]
 266:Generated_Source\PSoC5/IMU_UART.c ****         #endif /* (IMU_UART_RX_INTERRUPT_ENABLED) */
 267:Generated_Source\PSoC5/IMU_UART.c ****     #endif /* (IMU_UART_RX_ENABLED || IMU_UART_HD_ENABLED) */
 268:Generated_Source\PSoC5/IMU_UART.c **** 
 269:Generated_Source\PSoC5/IMU_UART.c ****     #if (IMU_UART_TX_ENABLED)
 270:Generated_Source\PSoC5/IMU_UART.c ****         IMU_UART_TXSTATUS_ACTL_REG &= (uint8) ~IMU_UART_INT_ENABLE;
 271:Generated_Source\PSoC5/IMU_UART.c **** 
 272:Generated_Source\PSoC5/IMU_UART.c ****         #if (IMU_UART_TX_INTERRUPT_ENABLED)
 273:Generated_Source\PSoC5/IMU_UART.c ****             IMU_UART_DisableTxInt();
 274:Generated_Source\PSoC5/IMU_UART.c ****         #endif /* (IMU_UART_TX_INTERRUPT_ENABLED) */
 275:Generated_Source\PSoC5/IMU_UART.c ****     #endif /* (IMU_UART_TX_ENABLED) */
 276:Generated_Source\PSoC5/IMU_UART.c **** 
 277:Generated_Source\PSoC5/IMU_UART.c ****     CyExitCriticalSection(enableInterrupts);
 197              		.loc 1 277 0
 198 0026 2046     		mov	r0, r4
 199 0028 FFF7FEFF 		bl	CyExitCriticalSection
 200              	.LVL12:
 201 002c 10BD     		pop	{r4, pc}
 202              	.LVL13:
 203              	.L17:
 204 002e 00BF     		.align	2
 205              	.L16:
 206 0030 95640040 		.word	1073767573
 207 0034 96640040 		.word	1073767574
 208 0038 80E100E0 		.word	-536813184
 209              		.cfi_endproc
 210              	.LFE3:
 211              		.size	IMU_UART_Stop, .-IMU_UART_Stop
 212              		.section	.text.IMU_UART_ReadControlRegister,"ax",%progbits
 213              		.align	2
 214              		.global	IMU_UART_ReadControlRegister
 215              		.thumb
 216              		.thumb_func
 217              		.type	IMU_UART_ReadControlRegister, %function
 218              	IMU_UART_ReadControlRegister:
 219              	.LFB4:
 278:Generated_Source\PSoC5/IMU_UART.c **** }
 279:Generated_Source\PSoC5/IMU_UART.c **** 
 280:Generated_Source\PSoC5/IMU_UART.c **** 
 281:Generated_Source\PSoC5/IMU_UART.c **** /*******************************************************************************
 282:Generated_Source\PSoC5/IMU_UART.c **** * Function Name: IMU_UART_ReadControlRegister
 283:Generated_Source\PSoC5/IMU_UART.c **** ********************************************************************************
 284:Generated_Source\PSoC5/IMU_UART.c **** *
 285:Generated_Source\PSoC5/IMU_UART.c **** * Summary:
 286:Generated_Source\PSoC5/IMU_UART.c **** *  Returns the current value of the control register.
 287:Generated_Source\PSoC5/IMU_UART.c **** *
 288:Generated_Source\PSoC5/IMU_UART.c **** * Parameters:
 289:Generated_Source\PSoC5/IMU_UART.c **** *  None.
ARM GAS  C:\Users\Fischer\AppData\Local\Temp\ccrRMyaW.s 			page 10


 290:Generated_Source\PSoC5/IMU_UART.c **** *
 291:Generated_Source\PSoC5/IMU_UART.c **** * Return:
 292:Generated_Source\PSoC5/IMU_UART.c **** *  Contents of the control register.
 293:Generated_Source\PSoC5/IMU_UART.c **** *
 294:Generated_Source\PSoC5/IMU_UART.c **** *******************************************************************************/
 295:Generated_Source\PSoC5/IMU_UART.c **** uint8 IMU_UART_ReadControlRegister(void) 
 296:Generated_Source\PSoC5/IMU_UART.c **** {
 220              		.loc 1 296 0
 221              		.cfi_startproc
 222              		@ args = 0, pretend = 0, frame = 0
 223              		@ frame_needed = 0, uses_anonymous_args = 0
 224              		@ link register save eliminated.
 297:Generated_Source\PSoC5/IMU_UART.c ****     #if (IMU_UART_CONTROL_REG_REMOVED)
 298:Generated_Source\PSoC5/IMU_UART.c ****         return(0u);
 299:Generated_Source\PSoC5/IMU_UART.c ****     #else
 300:Generated_Source\PSoC5/IMU_UART.c ****         return(IMU_UART_CONTROL_REG);
 301:Generated_Source\PSoC5/IMU_UART.c ****     #endif /* (IMU_UART_CONTROL_REG_REMOVED) */
 302:Generated_Source\PSoC5/IMU_UART.c **** }
 225              		.loc 1 302 0
 226 0000 0020     		movs	r0, #0
 227 0002 7047     		bx	lr
 228              		.cfi_endproc
 229              	.LFE4:
 230              		.size	IMU_UART_ReadControlRegister, .-IMU_UART_ReadControlRegister
 231              		.section	.text.IMU_UART_WriteControlRegister,"ax",%progbits
 232              		.align	2
 233              		.global	IMU_UART_WriteControlRegister
 234              		.thumb
 235              		.thumb_func
 236              		.type	IMU_UART_WriteControlRegister, %function
 237              	IMU_UART_WriteControlRegister:
 238              	.LFB5:
 303:Generated_Source\PSoC5/IMU_UART.c **** 
 304:Generated_Source\PSoC5/IMU_UART.c **** 
 305:Generated_Source\PSoC5/IMU_UART.c **** /*******************************************************************************
 306:Generated_Source\PSoC5/IMU_UART.c **** * Function Name: IMU_UART_WriteControlRegister
 307:Generated_Source\PSoC5/IMU_UART.c **** ********************************************************************************
 308:Generated_Source\PSoC5/IMU_UART.c **** *
 309:Generated_Source\PSoC5/IMU_UART.c **** * Summary:
 310:Generated_Source\PSoC5/IMU_UART.c **** *  Writes an 8-bit value into the control register
 311:Generated_Source\PSoC5/IMU_UART.c **** *
 312:Generated_Source\PSoC5/IMU_UART.c **** * Parameters:
 313:Generated_Source\PSoC5/IMU_UART.c **** *  control:  control register value
 314:Generated_Source\PSoC5/IMU_UART.c **** *
 315:Generated_Source\PSoC5/IMU_UART.c **** * Return:
 316:Generated_Source\PSoC5/IMU_UART.c **** *  None.
 317:Generated_Source\PSoC5/IMU_UART.c **** *
 318:Generated_Source\PSoC5/IMU_UART.c **** *******************************************************************************/
 319:Generated_Source\PSoC5/IMU_UART.c **** void  IMU_UART_WriteControlRegister(uint8 control) 
 320:Generated_Source\PSoC5/IMU_UART.c **** {
 239              		.loc 1 320 0
 240              		.cfi_startproc
 241              		@ args = 0, pretend = 0, frame = 0
 242              		@ frame_needed = 0, uses_anonymous_args = 0
 243              		@ link register save eliminated.
 244              	.LVL14:
 245 0000 7047     		bx	lr
ARM GAS  C:\Users\Fischer\AppData\Local\Temp\ccrRMyaW.s 			page 11


 246              		.cfi_endproc
 247              	.LFE5:
 248              		.size	IMU_UART_WriteControlRegister, .-IMU_UART_WriteControlRegister
 249 0002 00BF     		.section	.text.IMU_UART_SetRxInterruptMode,"ax",%progbits
 250              		.align	2
 251              		.global	IMU_UART_SetRxInterruptMode
 252              		.thumb
 253              		.thumb_func
 254              		.type	IMU_UART_SetRxInterruptMode, %function
 255              	IMU_UART_SetRxInterruptMode:
 256              	.LFB6:
 321:Generated_Source\PSoC5/IMU_UART.c ****     #if (IMU_UART_CONTROL_REG_REMOVED)
 322:Generated_Source\PSoC5/IMU_UART.c ****         if(0u != control)
 323:Generated_Source\PSoC5/IMU_UART.c ****         {
 324:Generated_Source\PSoC5/IMU_UART.c ****             /* Suppress compiler warning */
 325:Generated_Source\PSoC5/IMU_UART.c ****         }
 326:Generated_Source\PSoC5/IMU_UART.c ****     #else
 327:Generated_Source\PSoC5/IMU_UART.c ****        IMU_UART_CONTROL_REG = control;
 328:Generated_Source\PSoC5/IMU_UART.c ****     #endif /* (IMU_UART_CONTROL_REG_REMOVED) */
 329:Generated_Source\PSoC5/IMU_UART.c **** }
 330:Generated_Source\PSoC5/IMU_UART.c **** 
 331:Generated_Source\PSoC5/IMU_UART.c **** 
 332:Generated_Source\PSoC5/IMU_UART.c **** #if(IMU_UART_RX_ENABLED || IMU_UART_HD_ENABLED)
 333:Generated_Source\PSoC5/IMU_UART.c ****     /*******************************************************************************
 334:Generated_Source\PSoC5/IMU_UART.c ****     * Function Name: IMU_UART_SetRxInterruptMode
 335:Generated_Source\PSoC5/IMU_UART.c ****     ********************************************************************************
 336:Generated_Source\PSoC5/IMU_UART.c ****     *
 337:Generated_Source\PSoC5/IMU_UART.c ****     * Summary:
 338:Generated_Source\PSoC5/IMU_UART.c ****     *  Configures the RX interrupt sources enabled.
 339:Generated_Source\PSoC5/IMU_UART.c ****     *
 340:Generated_Source\PSoC5/IMU_UART.c ****     * Parameters:
 341:Generated_Source\PSoC5/IMU_UART.c ****     *  IntSrc:  Bit field containing the RX interrupts to enable. Based on the 
 342:Generated_Source\PSoC5/IMU_UART.c ****     *  bit-field arrangement of the status register. This value must be a 
 343:Generated_Source\PSoC5/IMU_UART.c ****     *  combination of status register bit-masks shown below:
 344:Generated_Source\PSoC5/IMU_UART.c ****     *      IMU_UART_RX_STS_FIFO_NOTEMPTY    Interrupt on byte received.
 345:Generated_Source\PSoC5/IMU_UART.c ****     *      IMU_UART_RX_STS_PAR_ERROR        Interrupt on parity error.
 346:Generated_Source\PSoC5/IMU_UART.c ****     *      IMU_UART_RX_STS_STOP_ERROR       Interrupt on stop error.
 347:Generated_Source\PSoC5/IMU_UART.c ****     *      IMU_UART_RX_STS_BREAK            Interrupt on break.
 348:Generated_Source\PSoC5/IMU_UART.c ****     *      IMU_UART_RX_STS_OVERRUN          Interrupt on overrun error.
 349:Generated_Source\PSoC5/IMU_UART.c ****     *      IMU_UART_RX_STS_ADDR_MATCH       Interrupt on address match.
 350:Generated_Source\PSoC5/IMU_UART.c ****     *      IMU_UART_RX_STS_MRKSPC           Interrupt on address detect.
 351:Generated_Source\PSoC5/IMU_UART.c ****     *
 352:Generated_Source\PSoC5/IMU_UART.c ****     * Return:
 353:Generated_Source\PSoC5/IMU_UART.c ****     *  None.
 354:Generated_Source\PSoC5/IMU_UART.c ****     *
 355:Generated_Source\PSoC5/IMU_UART.c ****     * Theory:
 356:Generated_Source\PSoC5/IMU_UART.c ****     *  Enables the output of specific status bits to the interrupt controller
 357:Generated_Source\PSoC5/IMU_UART.c ****     *
 358:Generated_Source\PSoC5/IMU_UART.c ****     *******************************************************************************/
 359:Generated_Source\PSoC5/IMU_UART.c ****     void IMU_UART_SetRxInterruptMode(uint8 intSrc) 
 360:Generated_Source\PSoC5/IMU_UART.c ****     {
 257              		.loc 1 360 0
 258              		.cfi_startproc
 259              		@ args = 0, pretend = 0, frame = 0
 260              		@ frame_needed = 0, uses_anonymous_args = 0
 261              		@ link register save eliminated.
 262              	.LVL15:
ARM GAS  C:\Users\Fischer\AppData\Local\Temp\ccrRMyaW.s 			page 12


 361:Generated_Source\PSoC5/IMU_UART.c ****         IMU_UART_RXSTATUS_MASK_REG  = intSrc;
 263              		.loc 1 361 0
 264 0000 014B     		ldr	r3, .L21
 265 0002 1870     		strb	r0, [r3]
 266 0004 7047     		bx	lr
 267              	.L22:
 268 0006 00BF     		.align	2
 269              	.L21:
 270 0008 86640040 		.word	1073767558
 271              		.cfi_endproc
 272              	.LFE6:
 273              		.size	IMU_UART_SetRxInterruptMode, .-IMU_UART_SetRxInterruptMode
 274              		.section	.text.IMU_UART_ReadRxData,"ax",%progbits
 275              		.align	2
 276              		.global	IMU_UART_ReadRxData
 277              		.thumb
 278              		.thumb_func
 279              		.type	IMU_UART_ReadRxData, %function
 280              	IMU_UART_ReadRxData:
 281              	.LFB7:
 362:Generated_Source\PSoC5/IMU_UART.c ****     }
 363:Generated_Source\PSoC5/IMU_UART.c **** 
 364:Generated_Source\PSoC5/IMU_UART.c **** 
 365:Generated_Source\PSoC5/IMU_UART.c ****     /*******************************************************************************
 366:Generated_Source\PSoC5/IMU_UART.c ****     * Function Name: IMU_UART_ReadRxData
 367:Generated_Source\PSoC5/IMU_UART.c ****     ********************************************************************************
 368:Generated_Source\PSoC5/IMU_UART.c ****     *
 369:Generated_Source\PSoC5/IMU_UART.c ****     * Summary:
 370:Generated_Source\PSoC5/IMU_UART.c ****     *  Returns the next byte of received data. This function returns data without
 371:Generated_Source\PSoC5/IMU_UART.c ****     *  checking the status. You must check the status separately.
 372:Generated_Source\PSoC5/IMU_UART.c ****     *
 373:Generated_Source\PSoC5/IMU_UART.c ****     * Parameters:
 374:Generated_Source\PSoC5/IMU_UART.c ****     *  None.
 375:Generated_Source\PSoC5/IMU_UART.c ****     *
 376:Generated_Source\PSoC5/IMU_UART.c ****     * Return:
 377:Generated_Source\PSoC5/IMU_UART.c ****     *  Received data from RX register
 378:Generated_Source\PSoC5/IMU_UART.c ****     *
 379:Generated_Source\PSoC5/IMU_UART.c ****     * Global Variables:
 380:Generated_Source\PSoC5/IMU_UART.c ****     *  IMU_UART_rxBuffer - RAM buffer pointer for save received data.
 381:Generated_Source\PSoC5/IMU_UART.c ****     *  IMU_UART_rxBufferWrite - cyclic index for write to rxBuffer,
 382:Generated_Source\PSoC5/IMU_UART.c ****     *     checked to identify new data.
 383:Generated_Source\PSoC5/IMU_UART.c ****     *  IMU_UART_rxBufferRead - cyclic index for read from rxBuffer,
 384:Generated_Source\PSoC5/IMU_UART.c ****     *     incremented after each byte has been read from buffer.
 385:Generated_Source\PSoC5/IMU_UART.c ****     *  IMU_UART_rxBufferLoopDetect - cleared if loop condition was detected
 386:Generated_Source\PSoC5/IMU_UART.c ****     *     in RX ISR.
 387:Generated_Source\PSoC5/IMU_UART.c ****     *
 388:Generated_Source\PSoC5/IMU_UART.c ****     * Reentrant:
 389:Generated_Source\PSoC5/IMU_UART.c ****     *  No.
 390:Generated_Source\PSoC5/IMU_UART.c ****     *
 391:Generated_Source\PSoC5/IMU_UART.c ****     *******************************************************************************/
 392:Generated_Source\PSoC5/IMU_UART.c ****     uint8 IMU_UART_ReadRxData(void) 
 393:Generated_Source\PSoC5/IMU_UART.c ****     {
 282              		.loc 1 393 0
 283              		.cfi_startproc
 284              		@ args = 0, pretend = 0, frame = 0
 285              		@ frame_needed = 0, uses_anonymous_args = 0
 286              		@ link register save eliminated.
ARM GAS  C:\Users\Fischer\AppData\Local\Temp\ccrRMyaW.s 			page 13


 394:Generated_Source\PSoC5/IMU_UART.c ****         uint8 rxData;
 395:Generated_Source\PSoC5/IMU_UART.c **** 
 396:Generated_Source\PSoC5/IMU_UART.c ****     #if (IMU_UART_RX_INTERRUPT_ENABLED)
 397:Generated_Source\PSoC5/IMU_UART.c **** 
 398:Generated_Source\PSoC5/IMU_UART.c ****         uint8 locRxBufferRead;
 399:Generated_Source\PSoC5/IMU_UART.c ****         uint8 locRxBufferWrite;
 400:Generated_Source\PSoC5/IMU_UART.c **** 
 401:Generated_Source\PSoC5/IMU_UART.c ****         /* Protect variables that could change on interrupt */
 402:Generated_Source\PSoC5/IMU_UART.c ****         IMU_UART_DisableRxInt();
 287              		.loc 1 402 0
 288 0000 0122     		movs	r2, #1
 289 0002 134B     		ldr	r3, .L29
 290 0004 1A60     		str	r2, [r3]
 403:Generated_Source\PSoC5/IMU_UART.c **** 
 404:Generated_Source\PSoC5/IMU_UART.c ****         locRxBufferRead  = IMU_UART_rxBufferRead;
 291              		.loc 1 404 0
 292 0006 134A     		ldr	r2, .L29+4
 293 0008 9378     		ldrb	r3, [r2, #2]	@ zero_extendqisi2
 294 000a DBB2     		uxtb	r3, r3
 295              	.LVL16:
 405:Generated_Source\PSoC5/IMU_UART.c ****         locRxBufferWrite = IMU_UART_rxBufferWrite;
 296              		.loc 1 405 0
 297 000c D178     		ldrb	r1, [r2, #3]	@ zero_extendqisi2
 298 000e C9B2     		uxtb	r1, r1
 299              	.LVL17:
 406:Generated_Source\PSoC5/IMU_UART.c **** 
 407:Generated_Source\PSoC5/IMU_UART.c ****         if( (IMU_UART_rxBufferLoopDetect != 0u) || (locRxBufferRead != locRxBufferWrite) )
 300              		.loc 1 407 0
 301 0010 1279     		ldrb	r2, [r2, #4]	@ zero_extendqisi2
 302 0012 12F0FF0F 		tst	r2, #255
 303 0016 01D1     		bne	.L24
 304              		.loc 1 407 0 is_stmt 0 discriminator 1
 305 0018 8B42     		cmp	r3, r1
 306 001a 11D0     		beq	.L25
 307              	.L24:
 408:Generated_Source\PSoC5/IMU_UART.c ****         {
 409:Generated_Source\PSoC5/IMU_UART.c ****             rxData = IMU_UART_rxBuffer[locRxBufferRead];
 308              		.loc 1 409 0 is_stmt 1
 309 001c 0E4A     		ldr	r2, .L29+8
 310 001e D05C     		ldrb	r0, [r2, r3]	@ zero_extendqisi2
 311 0020 C0B2     		uxtb	r0, r0
 312              	.LVL18:
 410:Generated_Source\PSoC5/IMU_UART.c ****             locRxBufferRead++;
 313              		.loc 1 410 0
 314 0022 0133     		adds	r3, r3, #1
 315              	.LVL19:
 316 0024 DBB2     		uxtb	r3, r3
 317              	.LVL20:
 411:Generated_Source\PSoC5/IMU_UART.c **** 
 412:Generated_Source\PSoC5/IMU_UART.c ****             if(locRxBufferRead >= IMU_UART_RX_BUFFER_SIZE)
 318              		.loc 1 412 0
 319 0026 132B     		cmp	r3, #19
 320 0028 00D9     		bls	.L26
 413:Generated_Source\PSoC5/IMU_UART.c ****             {
 414:Generated_Source\PSoC5/IMU_UART.c ****                 locRxBufferRead = 0u;
 321              		.loc 1 414 0
 322 002a 0023     		movs	r3, #0
ARM GAS  C:\Users\Fischer\AppData\Local\Temp\ccrRMyaW.s 			page 14


 323              	.LVL21:
 324              	.L26:
 415:Generated_Source\PSoC5/IMU_UART.c ****             }
 416:Generated_Source\PSoC5/IMU_UART.c ****             /* Update the real pointer */
 417:Generated_Source\PSoC5/IMU_UART.c ****             IMU_UART_rxBufferRead = locRxBufferRead;
 325              		.loc 1 417 0
 326 002c 094A     		ldr	r2, .L29+4
 327 002e 9370     		strb	r3, [r2, #2]
 418:Generated_Source\PSoC5/IMU_UART.c **** 
 419:Generated_Source\PSoC5/IMU_UART.c ****             if(IMU_UART_rxBufferLoopDetect != 0u)
 328              		.loc 1 419 0
 329 0030 1379     		ldrb	r3, [r2, #4]	@ zero_extendqisi2
 330              	.LVL22:
 331 0032 13F0FF0F 		tst	r3, #255
 332 0036 06D0     		beq	.L27
 420:Generated_Source\PSoC5/IMU_UART.c ****             {
 421:Generated_Source\PSoC5/IMU_UART.c ****                 IMU_UART_rxBufferLoopDetect = 0u;
 333              		.loc 1 421 0
 334 0038 0022     		movs	r2, #0
 335 003a 064B     		ldr	r3, .L29+4
 336 003c 1A71     		strb	r2, [r3, #4]
 337              	.LVL23:
 338 003e 02E0     		b	.L27
 339              	.LVL24:
 340              	.L25:
 422:Generated_Source\PSoC5/IMU_UART.c ****                 #if ((IMU_UART_RX_INTERRUPT_ENABLED) && (IMU_UART_FLOW_CONTROL != 0u))
 423:Generated_Source\PSoC5/IMU_UART.c ****                     /* When Hardware Flow Control selected - return RX mask */
 424:Generated_Source\PSoC5/IMU_UART.c ****                     #if( IMU_UART_HD_ENABLED )
 425:Generated_Source\PSoC5/IMU_UART.c ****                         if((IMU_UART_CONTROL_REG & IMU_UART_CTRL_HD_SEND) == 0u)
 426:Generated_Source\PSoC5/IMU_UART.c ****                         {   /* In Half duplex mode return RX mask only in RX
 427:Generated_Source\PSoC5/IMU_UART.c ****                             *  configuration set, otherwise
 428:Generated_Source\PSoC5/IMU_UART.c ****                             *  mask will be returned in LoadRxConfig() API.
 429:Generated_Source\PSoC5/IMU_UART.c ****                             */
 430:Generated_Source\PSoC5/IMU_UART.c ****                             IMU_UART_RXSTATUS_MASK_REG  |= IMU_UART_RX_STS_FIFO_NOTEMPTY;
 431:Generated_Source\PSoC5/IMU_UART.c ****                         }
 432:Generated_Source\PSoC5/IMU_UART.c ****                     #else
 433:Generated_Source\PSoC5/IMU_UART.c ****                         IMU_UART_RXSTATUS_MASK_REG  |= IMU_UART_RX_STS_FIFO_NOTEMPTY;
 434:Generated_Source\PSoC5/IMU_UART.c ****                     #endif /* end IMU_UART_HD_ENABLED */
 435:Generated_Source\PSoC5/IMU_UART.c ****                 #endif /* ((IMU_UART_RX_INTERRUPT_ENABLED) && (IMU_UART_FLOW_CONTROL != 0u)) */
 436:Generated_Source\PSoC5/IMU_UART.c ****             }
 437:Generated_Source\PSoC5/IMU_UART.c ****         }
 438:Generated_Source\PSoC5/IMU_UART.c ****         else
 439:Generated_Source\PSoC5/IMU_UART.c ****         {   /* Needs to check status for RX_STS_FIFO_NOTEMPTY bit */
 440:Generated_Source\PSoC5/IMU_UART.c ****             rxData = IMU_UART_RXDATA_REG;
 341              		.loc 1 440 0
 342 0040 064B     		ldr	r3, .L29+12
 343              	.LVL25:
 344 0042 1878     		ldrb	r0, [r3]	@ zero_extendqisi2
 345 0044 C0B2     		uxtb	r0, r0
 346              	.LVL26:
 347              	.L27:
 441:Generated_Source\PSoC5/IMU_UART.c ****         }
 442:Generated_Source\PSoC5/IMU_UART.c **** 
 443:Generated_Source\PSoC5/IMU_UART.c ****         IMU_UART_EnableRxInt();
 348              		.loc 1 443 0
 349 0046 0122     		movs	r2, #1
 350 0048 054B     		ldr	r3, .L29+16
ARM GAS  C:\Users\Fischer\AppData\Local\Temp\ccrRMyaW.s 			page 15


 351 004a 1A60     		str	r2, [r3]
 444:Generated_Source\PSoC5/IMU_UART.c **** 
 445:Generated_Source\PSoC5/IMU_UART.c ****     #else
 446:Generated_Source\PSoC5/IMU_UART.c **** 
 447:Generated_Source\PSoC5/IMU_UART.c ****         /* Needs to check status for RX_STS_FIFO_NOTEMPTY bit */
 448:Generated_Source\PSoC5/IMU_UART.c ****         rxData = IMU_UART_RXDATA_REG;
 449:Generated_Source\PSoC5/IMU_UART.c **** 
 450:Generated_Source\PSoC5/IMU_UART.c ****     #endif /* (IMU_UART_RX_INTERRUPT_ENABLED) */
 451:Generated_Source\PSoC5/IMU_UART.c **** 
 452:Generated_Source\PSoC5/IMU_UART.c ****         return(rxData);
 453:Generated_Source\PSoC5/IMU_UART.c ****     }
 352              		.loc 1 453 0
 353 004c 7047     		bx	lr
 354              	.L30:
 355 004e 00BF     		.align	2
 356              	.L29:
 357 0050 80E100E0 		.word	-536813184
 358 0054 00000000 		.word	.LANCHOR0
 359 0058 00000000 		.word	IMU_UART_rxBuffer
 360 005c 45640040 		.word	1073767493
 361 0060 00E100E0 		.word	-536813312
 362              		.cfi_endproc
 363              	.LFE7:
 364              		.size	IMU_UART_ReadRxData, .-IMU_UART_ReadRxData
 365              		.section	.text.IMU_UART_ReadRxStatus,"ax",%progbits
 366              		.align	2
 367              		.global	IMU_UART_ReadRxStatus
 368              		.thumb
 369              		.thumb_func
 370              		.type	IMU_UART_ReadRxStatus, %function
 371              	IMU_UART_ReadRxStatus:
 372              	.LFB8:
 454:Generated_Source\PSoC5/IMU_UART.c **** 
 455:Generated_Source\PSoC5/IMU_UART.c **** 
 456:Generated_Source\PSoC5/IMU_UART.c ****     /*******************************************************************************
 457:Generated_Source\PSoC5/IMU_UART.c ****     * Function Name: IMU_UART_ReadRxStatus
 458:Generated_Source\PSoC5/IMU_UART.c ****     ********************************************************************************
 459:Generated_Source\PSoC5/IMU_UART.c ****     *
 460:Generated_Source\PSoC5/IMU_UART.c ****     * Summary:
 461:Generated_Source\PSoC5/IMU_UART.c ****     *  Returns the current state of the receiver status register and the software
 462:Generated_Source\PSoC5/IMU_UART.c ****     *  buffer overflow status.
 463:Generated_Source\PSoC5/IMU_UART.c ****     *
 464:Generated_Source\PSoC5/IMU_UART.c ****     * Parameters:
 465:Generated_Source\PSoC5/IMU_UART.c ****     *  None.
 466:Generated_Source\PSoC5/IMU_UART.c ****     *
 467:Generated_Source\PSoC5/IMU_UART.c ****     * Return:
 468:Generated_Source\PSoC5/IMU_UART.c ****     *  Current state of the status register.
 469:Generated_Source\PSoC5/IMU_UART.c ****     *
 470:Generated_Source\PSoC5/IMU_UART.c ****     * Side Effect:
 471:Generated_Source\PSoC5/IMU_UART.c ****     *  All status register bits are clear-on-read except
 472:Generated_Source\PSoC5/IMU_UART.c ****     *  IMU_UART_RX_STS_FIFO_NOTEMPTY.
 473:Generated_Source\PSoC5/IMU_UART.c ****     *  IMU_UART_RX_STS_FIFO_NOTEMPTY clears immediately after RX data
 474:Generated_Source\PSoC5/IMU_UART.c ****     *  register read.
 475:Generated_Source\PSoC5/IMU_UART.c ****     *
 476:Generated_Source\PSoC5/IMU_UART.c ****     * Global Variables:
 477:Generated_Source\PSoC5/IMU_UART.c ****     *  IMU_UART_rxBufferOverflow - used to indicate overload condition.
 478:Generated_Source\PSoC5/IMU_UART.c ****     *   It set to one in RX interrupt when there isn't free space in
ARM GAS  C:\Users\Fischer\AppData\Local\Temp\ccrRMyaW.s 			page 16


 479:Generated_Source\PSoC5/IMU_UART.c ****     *   IMU_UART_rxBufferRead to write new data. This condition returned
 480:Generated_Source\PSoC5/IMU_UART.c ****     *   and cleared to zero by this API as an
 481:Generated_Source\PSoC5/IMU_UART.c ****     *   IMU_UART_RX_STS_SOFT_BUFF_OVER bit along with RX Status register
 482:Generated_Source\PSoC5/IMU_UART.c ****     *   bits.
 483:Generated_Source\PSoC5/IMU_UART.c ****     *
 484:Generated_Source\PSoC5/IMU_UART.c ****     *******************************************************************************/
 485:Generated_Source\PSoC5/IMU_UART.c ****     uint8 IMU_UART_ReadRxStatus(void) 
 486:Generated_Source\PSoC5/IMU_UART.c ****     {
 373              		.loc 1 486 0
 374              		.cfi_startproc
 375              		@ args = 0, pretend = 0, frame = 0
 376              		@ frame_needed = 0, uses_anonymous_args = 0
 377              		@ link register save eliminated.
 487:Generated_Source\PSoC5/IMU_UART.c ****         uint8 status;
 488:Generated_Source\PSoC5/IMU_UART.c **** 
 489:Generated_Source\PSoC5/IMU_UART.c ****         status = IMU_UART_RXSTATUS_REG & IMU_UART_RX_HW_MASK;
 378              		.loc 1 489 0
 379 0000 074B     		ldr	r3, .L33
 380 0002 1878     		ldrb	r0, [r3]	@ zero_extendqisi2
 381 0004 00F07F00 		and	r0, r0, #127
 382              	.LVL27:
 490:Generated_Source\PSoC5/IMU_UART.c **** 
 491:Generated_Source\PSoC5/IMU_UART.c ****     #if (IMU_UART_RX_INTERRUPT_ENABLED)
 492:Generated_Source\PSoC5/IMU_UART.c ****         if(IMU_UART_rxBufferOverflow != 0u)
 383              		.loc 1 492 0
 384 0008 064B     		ldr	r3, .L33+4
 385 000a 5B79     		ldrb	r3, [r3, #5]	@ zero_extendqisi2
 386 000c 13F0FF0F 		tst	r3, #255
 387 0010 04D0     		beq	.L32
 493:Generated_Source\PSoC5/IMU_UART.c ****         {
 494:Generated_Source\PSoC5/IMU_UART.c ****             status |= IMU_UART_RX_STS_SOFT_BUFF_OVER;
 388              		.loc 1 494 0
 389 0012 40F08000 		orr	r0, r0, #128
 390              	.LVL28:
 495:Generated_Source\PSoC5/IMU_UART.c ****             IMU_UART_rxBufferOverflow = 0u;
 391              		.loc 1 495 0
 392 0016 0022     		movs	r2, #0
 393 0018 024B     		ldr	r3, .L33+4
 394 001a 5A71     		strb	r2, [r3, #5]
 395              	.L32:
 496:Generated_Source\PSoC5/IMU_UART.c ****         }
 497:Generated_Source\PSoC5/IMU_UART.c ****     #endif /* (IMU_UART_RX_INTERRUPT_ENABLED) */
 498:Generated_Source\PSoC5/IMU_UART.c **** 
 499:Generated_Source\PSoC5/IMU_UART.c ****         return(status);
 500:Generated_Source\PSoC5/IMU_UART.c ****     }
 396              		.loc 1 500 0
 397 001c 7047     		bx	lr
 398              	.L34:
 399 001e 00BF     		.align	2
 400              	.L33:
 401 0020 66640040 		.word	1073767526
 402 0024 00000000 		.word	.LANCHOR0
 403              		.cfi_endproc
 404              	.LFE8:
 405              		.size	IMU_UART_ReadRxStatus, .-IMU_UART_ReadRxStatus
 406              		.section	.text.IMU_UART_GetChar,"ax",%progbits
 407              		.align	2
ARM GAS  C:\Users\Fischer\AppData\Local\Temp\ccrRMyaW.s 			page 17


 408              		.global	IMU_UART_GetChar
 409              		.thumb
 410              		.thumb_func
 411              		.type	IMU_UART_GetChar, %function
 412              	IMU_UART_GetChar:
 413              	.LFB9:
 501:Generated_Source\PSoC5/IMU_UART.c **** 
 502:Generated_Source\PSoC5/IMU_UART.c **** 
 503:Generated_Source\PSoC5/IMU_UART.c ****     /*******************************************************************************
 504:Generated_Source\PSoC5/IMU_UART.c ****     * Function Name: IMU_UART_GetChar
 505:Generated_Source\PSoC5/IMU_UART.c ****     ********************************************************************************
 506:Generated_Source\PSoC5/IMU_UART.c ****     *
 507:Generated_Source\PSoC5/IMU_UART.c ****     * Summary:
 508:Generated_Source\PSoC5/IMU_UART.c ****     *  Returns the last received byte of data. IMU_UART_GetChar() is
 509:Generated_Source\PSoC5/IMU_UART.c ****     *  designed for ASCII characters and returns a uint8 where 1 to 255 are values
 510:Generated_Source\PSoC5/IMU_UART.c ****     *  for valid characters and 0 indicates an error occurred or no data is present.
 511:Generated_Source\PSoC5/IMU_UART.c ****     *
 512:Generated_Source\PSoC5/IMU_UART.c ****     * Parameters:
 513:Generated_Source\PSoC5/IMU_UART.c ****     *  None.
 514:Generated_Source\PSoC5/IMU_UART.c ****     *
 515:Generated_Source\PSoC5/IMU_UART.c ****     * Return:
 516:Generated_Source\PSoC5/IMU_UART.c ****     *  Character read from UART RX buffer. ASCII characters from 1 to 255 are valid.
 517:Generated_Source\PSoC5/IMU_UART.c ****     *  A returned zero signifies an error condition or no data available.
 518:Generated_Source\PSoC5/IMU_UART.c ****     *
 519:Generated_Source\PSoC5/IMU_UART.c ****     * Global Variables:
 520:Generated_Source\PSoC5/IMU_UART.c ****     *  IMU_UART_rxBuffer - RAM buffer pointer for save received data.
 521:Generated_Source\PSoC5/IMU_UART.c ****     *  IMU_UART_rxBufferWrite - cyclic index for write to rxBuffer,
 522:Generated_Source\PSoC5/IMU_UART.c ****     *     checked to identify new data.
 523:Generated_Source\PSoC5/IMU_UART.c ****     *  IMU_UART_rxBufferRead - cyclic index for read from rxBuffer,
 524:Generated_Source\PSoC5/IMU_UART.c ****     *     incremented after each byte has been read from buffer.
 525:Generated_Source\PSoC5/IMU_UART.c ****     *  IMU_UART_rxBufferLoopDetect - cleared if loop condition was detected
 526:Generated_Source\PSoC5/IMU_UART.c ****     *     in RX ISR.
 527:Generated_Source\PSoC5/IMU_UART.c ****     *
 528:Generated_Source\PSoC5/IMU_UART.c ****     * Reentrant:
 529:Generated_Source\PSoC5/IMU_UART.c ****     *  No.
 530:Generated_Source\PSoC5/IMU_UART.c ****     *
 531:Generated_Source\PSoC5/IMU_UART.c ****     *******************************************************************************/
 532:Generated_Source\PSoC5/IMU_UART.c ****     uint8 IMU_UART_GetChar(void) 
 533:Generated_Source\PSoC5/IMU_UART.c ****     {
 414              		.loc 1 533 0
 415              		.cfi_startproc
 416              		@ args = 0, pretend = 0, frame = 0
 417              		@ frame_needed = 0, uses_anonymous_args = 0
 418              		@ link register save eliminated.
 419              	.LVL29:
 534:Generated_Source\PSoC5/IMU_UART.c ****         uint8 rxData = 0u;
 535:Generated_Source\PSoC5/IMU_UART.c ****         uint8 rxStatus;
 536:Generated_Source\PSoC5/IMU_UART.c **** 
 537:Generated_Source\PSoC5/IMU_UART.c ****     #if (IMU_UART_RX_INTERRUPT_ENABLED)
 538:Generated_Source\PSoC5/IMU_UART.c ****         uint8 locRxBufferRead;
 539:Generated_Source\PSoC5/IMU_UART.c ****         uint8 locRxBufferWrite;
 540:Generated_Source\PSoC5/IMU_UART.c **** 
 541:Generated_Source\PSoC5/IMU_UART.c ****         /* Protect variables that could change on interrupt */
 542:Generated_Source\PSoC5/IMU_UART.c ****         IMU_UART_DisableRxInt();
 420              		.loc 1 542 0
 421 0000 0122     		movs	r2, #1
 422 0002 194B     		ldr	r3, .L43
ARM GAS  C:\Users\Fischer\AppData\Local\Temp\ccrRMyaW.s 			page 18


 423 0004 1A60     		str	r2, [r3]
 543:Generated_Source\PSoC5/IMU_UART.c **** 
 544:Generated_Source\PSoC5/IMU_UART.c ****         locRxBufferRead  = IMU_UART_rxBufferRead;
 424              		.loc 1 544 0
 425 0006 194A     		ldr	r2, .L43+4
 426 0008 9378     		ldrb	r3, [r2, #2]	@ zero_extendqisi2
 427 000a DBB2     		uxtb	r3, r3
 428              	.LVL30:
 545:Generated_Source\PSoC5/IMU_UART.c ****         locRxBufferWrite = IMU_UART_rxBufferWrite;
 429              		.loc 1 545 0
 430 000c D178     		ldrb	r1, [r2, #3]	@ zero_extendqisi2
 431 000e C9B2     		uxtb	r1, r1
 432              	.LVL31:
 546:Generated_Source\PSoC5/IMU_UART.c **** 
 547:Generated_Source\PSoC5/IMU_UART.c ****         if( (IMU_UART_rxBufferLoopDetect != 0u) || (locRxBufferRead != locRxBufferWrite) )
 433              		.loc 1 547 0
 434 0010 1279     		ldrb	r2, [r2, #4]	@ zero_extendqisi2
 435 0012 12F0FF0F 		tst	r2, #255
 436 0016 01D1     		bne	.L36
 437              		.loc 1 547 0 is_stmt 0 discriminator 1
 438 0018 8B42     		cmp	r3, r1
 439 001a 11D0     		beq	.L37
 440              	.L36:
 548:Generated_Source\PSoC5/IMU_UART.c ****         {
 549:Generated_Source\PSoC5/IMU_UART.c ****             rxData = IMU_UART_rxBuffer[locRxBufferRead];
 441              		.loc 1 549 0 is_stmt 1
 442 001c 144A     		ldr	r2, .L43+8
 443 001e D05C     		ldrb	r0, [r2, r3]	@ zero_extendqisi2
 444 0020 C0B2     		uxtb	r0, r0
 445              	.LVL32:
 550:Generated_Source\PSoC5/IMU_UART.c ****             locRxBufferRead++;
 446              		.loc 1 550 0
 447 0022 0133     		adds	r3, r3, #1
 448              	.LVL33:
 449 0024 DBB2     		uxtb	r3, r3
 450              	.LVL34:
 551:Generated_Source\PSoC5/IMU_UART.c ****             if(locRxBufferRead >= IMU_UART_RX_BUFFER_SIZE)
 451              		.loc 1 551 0
 452 0026 132B     		cmp	r3, #19
 453 0028 00D9     		bls	.L38
 552:Generated_Source\PSoC5/IMU_UART.c ****             {
 553:Generated_Source\PSoC5/IMU_UART.c ****                 locRxBufferRead = 0u;
 454              		.loc 1 553 0
 455 002a 0023     		movs	r3, #0
 456              	.LVL35:
 457              	.L38:
 554:Generated_Source\PSoC5/IMU_UART.c ****             }
 555:Generated_Source\PSoC5/IMU_UART.c ****             /* Update the real pointer */
 556:Generated_Source\PSoC5/IMU_UART.c ****             IMU_UART_rxBufferRead = locRxBufferRead;
 458              		.loc 1 556 0
 459 002c 0F4A     		ldr	r2, .L43+4
 460 002e 9370     		strb	r3, [r2, #2]
 557:Generated_Source\PSoC5/IMU_UART.c **** 
 558:Generated_Source\PSoC5/IMU_UART.c ****             if(IMU_UART_rxBufferLoopDetect != 0u)
 461              		.loc 1 558 0
 462 0030 1379     		ldrb	r3, [r2, #4]	@ zero_extendqisi2
 463              	.LVL36:
ARM GAS  C:\Users\Fischer\AppData\Local\Temp\ccrRMyaW.s 			page 19


 464 0032 13F0FF0F 		tst	r3, #255
 465 0036 13D0     		beq	.L39
 559:Generated_Source\PSoC5/IMU_UART.c ****             {
 560:Generated_Source\PSoC5/IMU_UART.c ****                 IMU_UART_rxBufferLoopDetect = 0u;
 466              		.loc 1 560 0
 467 0038 0022     		movs	r2, #0
 468 003a 0C4B     		ldr	r3, .L43+4
 469 003c 1A71     		strb	r2, [r3, #4]
 470              	.LVL37:
 471 003e 0FE0     		b	.L39
 472              	.LVL38:
 473              	.L37:
 561:Generated_Source\PSoC5/IMU_UART.c ****                 #if( (IMU_UART_RX_INTERRUPT_ENABLED) && (IMU_UART_FLOW_CONTROL != 0u) )
 562:Generated_Source\PSoC5/IMU_UART.c ****                     /* When Hardware Flow Control selected - return RX mask */
 563:Generated_Source\PSoC5/IMU_UART.c ****                     #if( IMU_UART_HD_ENABLED )
 564:Generated_Source\PSoC5/IMU_UART.c ****                         if((IMU_UART_CONTROL_REG & IMU_UART_CTRL_HD_SEND) == 0u)
 565:Generated_Source\PSoC5/IMU_UART.c ****                         {   /* In Half duplex mode return RX mask only if
 566:Generated_Source\PSoC5/IMU_UART.c ****                             *  RX configuration set, otherwise
 567:Generated_Source\PSoC5/IMU_UART.c ****                             *  mask will be returned in LoadRxConfig() API.
 568:Generated_Source\PSoC5/IMU_UART.c ****                             */
 569:Generated_Source\PSoC5/IMU_UART.c ****                             IMU_UART_RXSTATUS_MASK_REG |= IMU_UART_RX_STS_FIFO_NOTEMPTY;
 570:Generated_Source\PSoC5/IMU_UART.c ****                         }
 571:Generated_Source\PSoC5/IMU_UART.c ****                     #else
 572:Generated_Source\PSoC5/IMU_UART.c ****                         IMU_UART_RXSTATUS_MASK_REG |= IMU_UART_RX_STS_FIFO_NOTEMPTY;
 573:Generated_Source\PSoC5/IMU_UART.c ****                     #endif /* end IMU_UART_HD_ENABLED */
 574:Generated_Source\PSoC5/IMU_UART.c ****                 #endif /* IMU_UART_RX_INTERRUPT_ENABLED and Hardware flow control*/
 575:Generated_Source\PSoC5/IMU_UART.c ****             }
 576:Generated_Source\PSoC5/IMU_UART.c **** 
 577:Generated_Source\PSoC5/IMU_UART.c ****         }
 578:Generated_Source\PSoC5/IMU_UART.c ****         else
 579:Generated_Source\PSoC5/IMU_UART.c ****         {   rxStatus = IMU_UART_RXSTATUS_REG;
 474              		.loc 1 579 0
 475 0040 0C4B     		ldr	r3, .L43+12
 476              	.LVL39:
 477 0042 1B78     		ldrb	r3, [r3]	@ zero_extendqisi2
 478 0044 DBB2     		uxtb	r3, r3
 479              	.LVL40:
 580:Generated_Source\PSoC5/IMU_UART.c ****             if((rxStatus & IMU_UART_RX_STS_FIFO_NOTEMPTY) != 0u)
 480              		.loc 1 580 0
 481 0046 13F0200F 		tst	r3, #32
 482 004a 06D0     		beq	.L41
 581:Generated_Source\PSoC5/IMU_UART.c ****             {   /* Read received data from FIFO */
 582:Generated_Source\PSoC5/IMU_UART.c ****                 rxData = IMU_UART_RXDATA_REG;
 483              		.loc 1 582 0
 484 004c 0A4A     		ldr	r2, .L43+16
 485 004e 1078     		ldrb	r0, [r2]	@ zero_extendqisi2
 486 0050 C0B2     		uxtb	r0, r0
 487              	.LVL41:
 583:Generated_Source\PSoC5/IMU_UART.c ****                 /*Check status on error*/
 584:Generated_Source\PSoC5/IMU_UART.c ****                 if((rxStatus & (IMU_UART_RX_STS_BREAK | IMU_UART_RX_STS_PAR_ERROR |
 488              		.loc 1 584 0
 489 0052 13F01E0F 		tst	r3, #30
 490 0056 02D1     		bne	.L42
 491 0058 02E0     		b	.L39
 492              	.LVL42:
 493              	.L41:
 534:Generated_Source\PSoC5/IMU_UART.c ****         uint8 rxStatus;
ARM GAS  C:\Users\Fischer\AppData\Local\Temp\ccrRMyaW.s 			page 20


 494              		.loc 1 534 0
 495 005a 0020     		movs	r0, #0
 496 005c 00E0     		b	.L39
 497              	.LVL43:
 498              	.L42:
 585:Generated_Source\PSoC5/IMU_UART.c ****                                 IMU_UART_RX_STS_STOP_ERROR | IMU_UART_RX_STS_OVERRUN)) != 0u)
 586:Generated_Source\PSoC5/IMU_UART.c ****                 {
 587:Generated_Source\PSoC5/IMU_UART.c ****                     rxData = 0u;
 499              		.loc 1 587 0
 500 005e 0020     		movs	r0, #0
 501              	.LVL44:
 502              	.L39:
 588:Generated_Source\PSoC5/IMU_UART.c ****                 }
 589:Generated_Source\PSoC5/IMU_UART.c ****             }
 590:Generated_Source\PSoC5/IMU_UART.c ****         }
 591:Generated_Source\PSoC5/IMU_UART.c **** 
 592:Generated_Source\PSoC5/IMU_UART.c ****         IMU_UART_EnableRxInt();
 503              		.loc 1 592 0
 504 0060 0122     		movs	r2, #1
 505 0062 064B     		ldr	r3, .L43+20
 506 0064 1A60     		str	r2, [r3]
 593:Generated_Source\PSoC5/IMU_UART.c **** 
 594:Generated_Source\PSoC5/IMU_UART.c ****     #else
 595:Generated_Source\PSoC5/IMU_UART.c **** 
 596:Generated_Source\PSoC5/IMU_UART.c ****         rxStatus =IMU_UART_RXSTATUS_REG;
 597:Generated_Source\PSoC5/IMU_UART.c ****         if((rxStatus & IMU_UART_RX_STS_FIFO_NOTEMPTY) != 0u)
 598:Generated_Source\PSoC5/IMU_UART.c ****         {
 599:Generated_Source\PSoC5/IMU_UART.c ****             /* Read received data from FIFO */
 600:Generated_Source\PSoC5/IMU_UART.c ****             rxData = IMU_UART_RXDATA_REG;
 601:Generated_Source\PSoC5/IMU_UART.c **** 
 602:Generated_Source\PSoC5/IMU_UART.c ****             /*Check status on error*/
 603:Generated_Source\PSoC5/IMU_UART.c ****             if((rxStatus & (IMU_UART_RX_STS_BREAK | IMU_UART_RX_STS_PAR_ERROR |
 604:Generated_Source\PSoC5/IMU_UART.c ****                             IMU_UART_RX_STS_STOP_ERROR | IMU_UART_RX_STS_OVERRUN)) != 0u)
 605:Generated_Source\PSoC5/IMU_UART.c ****             {
 606:Generated_Source\PSoC5/IMU_UART.c ****                 rxData = 0u;
 607:Generated_Source\PSoC5/IMU_UART.c ****             }
 608:Generated_Source\PSoC5/IMU_UART.c ****         }
 609:Generated_Source\PSoC5/IMU_UART.c ****     #endif /* (IMU_UART_RX_INTERRUPT_ENABLED) */
 610:Generated_Source\PSoC5/IMU_UART.c **** 
 611:Generated_Source\PSoC5/IMU_UART.c ****         return(rxData);
 612:Generated_Source\PSoC5/IMU_UART.c ****     }
 507              		.loc 1 612 0
 508 0066 7047     		bx	lr
 509              	.L44:
 510              		.align	2
 511              	.L43:
 512 0068 80E100E0 		.word	-536813184
 513 006c 00000000 		.word	.LANCHOR0
 514 0070 00000000 		.word	IMU_UART_rxBuffer
 515 0074 66640040 		.word	1073767526
 516 0078 45640040 		.word	1073767493
 517 007c 00E100E0 		.word	-536813312
 518              		.cfi_endproc
 519              	.LFE9:
 520              		.size	IMU_UART_GetChar, .-IMU_UART_GetChar
 521              		.section	.text.IMU_UART_GetByte,"ax",%progbits
 522              		.align	2
ARM GAS  C:\Users\Fischer\AppData\Local\Temp\ccrRMyaW.s 			page 21


 523              		.global	IMU_UART_GetByte
 524              		.thumb
 525              		.thumb_func
 526              		.type	IMU_UART_GetByte, %function
 527              	IMU_UART_GetByte:
 528              	.LFB10:
 613:Generated_Source\PSoC5/IMU_UART.c **** 
 614:Generated_Source\PSoC5/IMU_UART.c **** 
 615:Generated_Source\PSoC5/IMU_UART.c ****     /*******************************************************************************
 616:Generated_Source\PSoC5/IMU_UART.c ****     * Function Name: IMU_UART_GetByte
 617:Generated_Source\PSoC5/IMU_UART.c ****     ********************************************************************************
 618:Generated_Source\PSoC5/IMU_UART.c ****     *
 619:Generated_Source\PSoC5/IMU_UART.c ****     * Summary:
 620:Generated_Source\PSoC5/IMU_UART.c ****     *  Reads UART RX buffer immediately, returns received character and error
 621:Generated_Source\PSoC5/IMU_UART.c ****     *  condition.
 622:Generated_Source\PSoC5/IMU_UART.c ****     *
 623:Generated_Source\PSoC5/IMU_UART.c ****     * Parameters:
 624:Generated_Source\PSoC5/IMU_UART.c ****     *  None.
 625:Generated_Source\PSoC5/IMU_UART.c ****     *
 626:Generated_Source\PSoC5/IMU_UART.c ****     * Return:
 627:Generated_Source\PSoC5/IMU_UART.c ****     *  MSB contains status and LSB contains UART RX data. If the MSB is nonzero,
 628:Generated_Source\PSoC5/IMU_UART.c ****     *  an error has occurred.
 629:Generated_Source\PSoC5/IMU_UART.c ****     *
 630:Generated_Source\PSoC5/IMU_UART.c ****     * Reentrant:
 631:Generated_Source\PSoC5/IMU_UART.c ****     *  No.
 632:Generated_Source\PSoC5/IMU_UART.c ****     *
 633:Generated_Source\PSoC5/IMU_UART.c ****     *******************************************************************************/
 634:Generated_Source\PSoC5/IMU_UART.c ****     uint16 IMU_UART_GetByte(void) 
 635:Generated_Source\PSoC5/IMU_UART.c ****     {
 529              		.loc 1 635 0
 530              		.cfi_startproc
 531              		@ args = 0, pretend = 0, frame = 0
 532              		@ frame_needed = 0, uses_anonymous_args = 0
 533 0000 10B5     		push	{r4, lr}
 534              		.cfi_def_cfa_offset 8
 535              		.cfi_offset 4, -8
 536              		.cfi_offset 14, -4
 636:Generated_Source\PSoC5/IMU_UART.c ****         
 637:Generated_Source\PSoC5/IMU_UART.c ****     #if (IMU_UART_RX_INTERRUPT_ENABLED)
 638:Generated_Source\PSoC5/IMU_UART.c ****         uint16 locErrorStatus;
 639:Generated_Source\PSoC5/IMU_UART.c ****         /* Protect variables that could change on interrupt */
 640:Generated_Source\PSoC5/IMU_UART.c ****         IMU_UART_DisableRxInt();
 537              		.loc 1 640 0
 538 0002 0123     		movs	r3, #1
 539 0004 064A     		ldr	r2, .L47
 540 0006 1360     		str	r3, [r2]
 641:Generated_Source\PSoC5/IMU_UART.c ****         locErrorStatus = (uint16)IMU_UART_errorStatus;
 541              		.loc 1 641 0
 542 0008 064A     		ldr	r2, .L47+4
 543 000a 1478     		ldrb	r4, [r2]	@ zero_extendqisi2
 544              	.LVL45:
 642:Generated_Source\PSoC5/IMU_UART.c ****         IMU_UART_errorStatus = 0u;
 545              		.loc 1 642 0
 546 000c 0021     		movs	r1, #0
 547 000e 1170     		strb	r1, [r2]
 643:Generated_Source\PSoC5/IMU_UART.c ****         IMU_UART_EnableRxInt();
 548              		.loc 1 643 0
ARM GAS  C:\Users\Fischer\AppData\Local\Temp\ccrRMyaW.s 			page 22


 549 0010 054A     		ldr	r2, .L47+8
 550 0012 1360     		str	r3, [r2]
 644:Generated_Source\PSoC5/IMU_UART.c ****         return ( (uint16)(locErrorStatus << 8u) | IMU_UART_ReadRxData() );
 551              		.loc 1 644 0
 552 0014 2402     		lsls	r4, r4, #8
 553              	.LVL46:
 554 0016 FFF7FEFF 		bl	IMU_UART_ReadRxData
 555              	.LVL47:
 556 001a 2043     		orrs	r0, r0, r4
 645:Generated_Source\PSoC5/IMU_UART.c ****     #else
 646:Generated_Source\PSoC5/IMU_UART.c ****         return ( ((uint16)IMU_UART_ReadRxStatus() << 8u) | IMU_UART_ReadRxData() );
 647:Generated_Source\PSoC5/IMU_UART.c ****     #endif /* IMU_UART_RX_INTERRUPT_ENABLED */
 648:Generated_Source\PSoC5/IMU_UART.c ****         
 649:Generated_Source\PSoC5/IMU_UART.c ****     }
 557              		.loc 1 649 0
 558 001c 80B2     		uxth	r0, r0
 559 001e 10BD     		pop	{r4, pc}
 560              	.L48:
 561              		.align	2
 562              	.L47:
 563 0020 80E100E0 		.word	-536813184
 564 0024 00000000 		.word	.LANCHOR0
 565 0028 00E100E0 		.word	-536813312
 566              		.cfi_endproc
 567              	.LFE10:
 568              		.size	IMU_UART_GetByte, .-IMU_UART_GetByte
 569              		.section	.text.IMU_UART_GetRxBufferSize,"ax",%progbits
 570              		.align	2
 571              		.global	IMU_UART_GetRxBufferSize
 572              		.thumb
 573              		.thumb_func
 574              		.type	IMU_UART_GetRxBufferSize, %function
 575              	IMU_UART_GetRxBufferSize:
 576              	.LFB11:
 650:Generated_Source\PSoC5/IMU_UART.c **** 
 651:Generated_Source\PSoC5/IMU_UART.c **** 
 652:Generated_Source\PSoC5/IMU_UART.c ****     /*******************************************************************************
 653:Generated_Source\PSoC5/IMU_UART.c ****     * Function Name: IMU_UART_GetRxBufferSize
 654:Generated_Source\PSoC5/IMU_UART.c ****     ********************************************************************************
 655:Generated_Source\PSoC5/IMU_UART.c ****     *
 656:Generated_Source\PSoC5/IMU_UART.c ****     * Summary:
 657:Generated_Source\PSoC5/IMU_UART.c ****     *  Returns the number of received bytes available in the RX buffer.
 658:Generated_Source\PSoC5/IMU_UART.c ****     *  * RX software buffer is disabled (RX Buffer Size parameter is equal to 4): 
 659:Generated_Source\PSoC5/IMU_UART.c ****     *    returns 0 for empty RX FIFO or 1 for not empty RX FIFO.
 660:Generated_Source\PSoC5/IMU_UART.c ****     *  * RX software buffer is enabled: returns the number of bytes available in 
 661:Generated_Source\PSoC5/IMU_UART.c ****     *    the RX software buffer. Bytes available in the RX FIFO do not take to 
 662:Generated_Source\PSoC5/IMU_UART.c ****     *    account.
 663:Generated_Source\PSoC5/IMU_UART.c ****     *
 664:Generated_Source\PSoC5/IMU_UART.c ****     * Parameters:
 665:Generated_Source\PSoC5/IMU_UART.c ****     *  None.
 666:Generated_Source\PSoC5/IMU_UART.c ****     *
 667:Generated_Source\PSoC5/IMU_UART.c ****     * Return:
 668:Generated_Source\PSoC5/IMU_UART.c ****     *  uint8: Number of bytes in the RX buffer. 
 669:Generated_Source\PSoC5/IMU_UART.c ****     *    Return value type depends on RX Buffer Size parameter.
 670:Generated_Source\PSoC5/IMU_UART.c ****     *
 671:Generated_Source\PSoC5/IMU_UART.c ****     * Global Variables:
 672:Generated_Source\PSoC5/IMU_UART.c ****     *  IMU_UART_rxBufferWrite - used to calculate left bytes.
ARM GAS  C:\Users\Fischer\AppData\Local\Temp\ccrRMyaW.s 			page 23


 673:Generated_Source\PSoC5/IMU_UART.c ****     *  IMU_UART_rxBufferRead - used to calculate left bytes.
 674:Generated_Source\PSoC5/IMU_UART.c ****     *  IMU_UART_rxBufferLoopDetect - checked to decide left bytes amount.
 675:Generated_Source\PSoC5/IMU_UART.c ****     *
 676:Generated_Source\PSoC5/IMU_UART.c ****     * Reentrant:
 677:Generated_Source\PSoC5/IMU_UART.c ****     *  No.
 678:Generated_Source\PSoC5/IMU_UART.c ****     *
 679:Generated_Source\PSoC5/IMU_UART.c ****     * Theory:
 680:Generated_Source\PSoC5/IMU_UART.c ****     *  Allows the user to find out how full the RX Buffer is.
 681:Generated_Source\PSoC5/IMU_UART.c ****     *
 682:Generated_Source\PSoC5/IMU_UART.c ****     *******************************************************************************/
 683:Generated_Source\PSoC5/IMU_UART.c ****     uint8 IMU_UART_GetRxBufferSize(void)
 684:Generated_Source\PSoC5/IMU_UART.c ****                                                             
 685:Generated_Source\PSoC5/IMU_UART.c ****     {
 577              		.loc 1 685 0
 578              		.cfi_startproc
 579              		@ args = 0, pretend = 0, frame = 0
 580              		@ frame_needed = 0, uses_anonymous_args = 0
 581              		@ link register save eliminated.
 686:Generated_Source\PSoC5/IMU_UART.c ****         uint8 size;
 687:Generated_Source\PSoC5/IMU_UART.c **** 
 688:Generated_Source\PSoC5/IMU_UART.c ****     #if (IMU_UART_RX_INTERRUPT_ENABLED)
 689:Generated_Source\PSoC5/IMU_UART.c **** 
 690:Generated_Source\PSoC5/IMU_UART.c ****         /* Protect variables that could change on interrupt */
 691:Generated_Source\PSoC5/IMU_UART.c ****         IMU_UART_DisableRxInt();
 582              		.loc 1 691 0
 583 0000 0122     		movs	r2, #1
 584 0002 144B     		ldr	r3, .L54
 585 0004 1A60     		str	r2, [r3]
 692:Generated_Source\PSoC5/IMU_UART.c **** 
 693:Generated_Source\PSoC5/IMU_UART.c ****         if(IMU_UART_rxBufferRead == IMU_UART_rxBufferWrite)
 586              		.loc 1 693 0
 587 0006 144B     		ldr	r3, .L54+4
 588 0008 9A78     		ldrb	r2, [r3, #2]	@ zero_extendqisi2
 589 000a D2B2     		uxtb	r2, r2
 590 000c DB78     		ldrb	r3, [r3, #3]	@ zero_extendqisi2
 591 000e DBB2     		uxtb	r3, r3
 592 0010 9A42     		cmp	r2, r3
 593 0012 06D1     		bne	.L50
 694:Generated_Source\PSoC5/IMU_UART.c ****         {
 695:Generated_Source\PSoC5/IMU_UART.c ****             if(IMU_UART_rxBufferLoopDetect != 0u)
 594              		.loc 1 695 0
 595 0014 104B     		ldr	r3, .L54+4
 596 0016 1B79     		ldrb	r3, [r3, #4]	@ zero_extendqisi2
 597 0018 13F0FF0F 		tst	r3, #255
 598 001c 15D0     		beq	.L53
 696:Generated_Source\PSoC5/IMU_UART.c ****             {
 697:Generated_Source\PSoC5/IMU_UART.c ****                 size = IMU_UART_RX_BUFFER_SIZE;
 599              		.loc 1 697 0
 600 001e 1420     		movs	r0, #20
 601 0020 14E0     		b	.L51
 602              	.L50:
 698:Generated_Source\PSoC5/IMU_UART.c ****             }
 699:Generated_Source\PSoC5/IMU_UART.c ****             else
 700:Generated_Source\PSoC5/IMU_UART.c ****             {
 701:Generated_Source\PSoC5/IMU_UART.c ****                 size = 0u;
 702:Generated_Source\PSoC5/IMU_UART.c ****             }
 703:Generated_Source\PSoC5/IMU_UART.c ****         }
ARM GAS  C:\Users\Fischer\AppData\Local\Temp\ccrRMyaW.s 			page 24


 704:Generated_Source\PSoC5/IMU_UART.c ****         else if(IMU_UART_rxBufferRead < IMU_UART_rxBufferWrite)
 603              		.loc 1 704 0
 604 0022 0D4B     		ldr	r3, .L54+4
 605 0024 9A78     		ldrb	r2, [r3, #2]	@ zero_extendqisi2
 606 0026 D2B2     		uxtb	r2, r2
 607 0028 DB78     		ldrb	r3, [r3, #3]	@ zero_extendqisi2
 608 002a DBB2     		uxtb	r3, r3
 609 002c 9A42     		cmp	r2, r3
 610 002e 05D2     		bcs	.L52
 705:Generated_Source\PSoC5/IMU_UART.c ****         {
 706:Generated_Source\PSoC5/IMU_UART.c ****             size = (IMU_UART_rxBufferWrite - IMU_UART_rxBufferRead);
 611              		.loc 1 706 0
 612 0030 094A     		ldr	r2, .L54+4
 613 0032 D378     		ldrb	r3, [r2, #3]	@ zero_extendqisi2
 614 0034 9078     		ldrb	r0, [r2, #2]	@ zero_extendqisi2
 615 0036 181A     		subs	r0, r3, r0
 616 0038 C0B2     		uxtb	r0, r0
 617              	.LVL48:
 618 003a 07E0     		b	.L51
 619              	.LVL49:
 620              	.L52:
 707:Generated_Source\PSoC5/IMU_UART.c ****         }
 708:Generated_Source\PSoC5/IMU_UART.c ****         else
 709:Generated_Source\PSoC5/IMU_UART.c ****         {
 710:Generated_Source\PSoC5/IMU_UART.c ****             size = (IMU_UART_RX_BUFFER_SIZE - IMU_UART_rxBufferRead) + IMU_UART_rxBufferWrite;
 621              		.loc 1 710 0
 622 003c 064A     		ldr	r2, .L54+4
 623 003e D378     		ldrb	r3, [r2, #3]	@ zero_extendqisi2
 624 0040 9078     		ldrb	r0, [r2, #2]	@ zero_extendqisi2
 625 0042 181A     		subs	r0, r3, r0
 626 0044 1430     		adds	r0, r0, #20
 627 0046 C0B2     		uxtb	r0, r0
 628              	.LVL50:
 629 0048 00E0     		b	.L51
 630              	.LVL51:
 631              	.L53:
 701:Generated_Source\PSoC5/IMU_UART.c ****             }
 632              		.loc 1 701 0
 633 004a 0020     		movs	r0, #0
 634              	.L51:
 635              	.LVL52:
 711:Generated_Source\PSoC5/IMU_UART.c ****         }
 712:Generated_Source\PSoC5/IMU_UART.c **** 
 713:Generated_Source\PSoC5/IMU_UART.c ****         IMU_UART_EnableRxInt();
 636              		.loc 1 713 0
 637 004c 0122     		movs	r2, #1
 638 004e 034B     		ldr	r3, .L54+8
 639 0050 1A60     		str	r2, [r3]
 714:Generated_Source\PSoC5/IMU_UART.c **** 
 715:Generated_Source\PSoC5/IMU_UART.c ****     #else
 716:Generated_Source\PSoC5/IMU_UART.c **** 
 717:Generated_Source\PSoC5/IMU_UART.c ****         /* We can only know if there is data in the fifo. */
 718:Generated_Source\PSoC5/IMU_UART.c ****         size = ((IMU_UART_RXSTATUS_REG & IMU_UART_RX_STS_FIFO_NOTEMPTY) != 0u) ? 1u : 0u;
 719:Generated_Source\PSoC5/IMU_UART.c **** 
 720:Generated_Source\PSoC5/IMU_UART.c ****     #endif /* (IMU_UART_RX_INTERRUPT_ENABLED) */
 721:Generated_Source\PSoC5/IMU_UART.c **** 
 722:Generated_Source\PSoC5/IMU_UART.c ****         return(size);
ARM GAS  C:\Users\Fischer\AppData\Local\Temp\ccrRMyaW.s 			page 25


 723:Generated_Source\PSoC5/IMU_UART.c ****     }
 640              		.loc 1 723 0
 641 0052 7047     		bx	lr
 642              	.L55:
 643              		.align	2
 644              	.L54:
 645 0054 80E100E0 		.word	-536813184
 646 0058 00000000 		.word	.LANCHOR0
 647 005c 00E100E0 		.word	-536813312
 648              		.cfi_endproc
 649              	.LFE11:
 650              		.size	IMU_UART_GetRxBufferSize, .-IMU_UART_GetRxBufferSize
 651              		.section	.text.IMU_UART_ClearRxBuffer,"ax",%progbits
 652              		.align	2
 653              		.global	IMU_UART_ClearRxBuffer
 654              		.thumb
 655              		.thumb_func
 656              		.type	IMU_UART_ClearRxBuffer, %function
 657              	IMU_UART_ClearRxBuffer:
 658              	.LFB12:
 724:Generated_Source\PSoC5/IMU_UART.c **** 
 725:Generated_Source\PSoC5/IMU_UART.c **** 
 726:Generated_Source\PSoC5/IMU_UART.c ****     /*******************************************************************************
 727:Generated_Source\PSoC5/IMU_UART.c ****     * Function Name: IMU_UART_ClearRxBuffer
 728:Generated_Source\PSoC5/IMU_UART.c ****     ********************************************************************************
 729:Generated_Source\PSoC5/IMU_UART.c ****     *
 730:Generated_Source\PSoC5/IMU_UART.c ****     * Summary:
 731:Generated_Source\PSoC5/IMU_UART.c ****     *  Clears the receiver memory buffer and hardware RX FIFO of all received data.
 732:Generated_Source\PSoC5/IMU_UART.c ****     *
 733:Generated_Source\PSoC5/IMU_UART.c ****     * Parameters:
 734:Generated_Source\PSoC5/IMU_UART.c ****     *  None.
 735:Generated_Source\PSoC5/IMU_UART.c ****     *
 736:Generated_Source\PSoC5/IMU_UART.c ****     * Return:
 737:Generated_Source\PSoC5/IMU_UART.c ****     *  None.
 738:Generated_Source\PSoC5/IMU_UART.c ****     *
 739:Generated_Source\PSoC5/IMU_UART.c ****     * Global Variables:
 740:Generated_Source\PSoC5/IMU_UART.c ****     *  IMU_UART_rxBufferWrite - cleared to zero.
 741:Generated_Source\PSoC5/IMU_UART.c ****     *  IMU_UART_rxBufferRead - cleared to zero.
 742:Generated_Source\PSoC5/IMU_UART.c ****     *  IMU_UART_rxBufferLoopDetect - cleared to zero.
 743:Generated_Source\PSoC5/IMU_UART.c ****     *  IMU_UART_rxBufferOverflow - cleared to zero.
 744:Generated_Source\PSoC5/IMU_UART.c ****     *
 745:Generated_Source\PSoC5/IMU_UART.c ****     * Reentrant:
 746:Generated_Source\PSoC5/IMU_UART.c ****     *  No.
 747:Generated_Source\PSoC5/IMU_UART.c ****     *
 748:Generated_Source\PSoC5/IMU_UART.c ****     * Theory:
 749:Generated_Source\PSoC5/IMU_UART.c ****     *  Setting the pointers to zero makes the system believe there is no data to
 750:Generated_Source\PSoC5/IMU_UART.c ****     *  read and writing will resume at address 0 overwriting any data that may
 751:Generated_Source\PSoC5/IMU_UART.c ****     *  have remained in the RAM.
 752:Generated_Source\PSoC5/IMU_UART.c ****     *
 753:Generated_Source\PSoC5/IMU_UART.c ****     * Side Effects:
 754:Generated_Source\PSoC5/IMU_UART.c ****     *  Any received data not read from the RAM or FIFO buffer will be lost.
 755:Generated_Source\PSoC5/IMU_UART.c ****     *
 756:Generated_Source\PSoC5/IMU_UART.c ****     *******************************************************************************/
 757:Generated_Source\PSoC5/IMU_UART.c ****     void IMU_UART_ClearRxBuffer(void) 
 758:Generated_Source\PSoC5/IMU_UART.c ****     {
 659              		.loc 1 758 0
 660              		.cfi_startproc
ARM GAS  C:\Users\Fischer\AppData\Local\Temp\ccrRMyaW.s 			page 26


 661              		@ args = 0, pretend = 0, frame = 0
 662              		@ frame_needed = 0, uses_anonymous_args = 0
 663 0000 08B5     		push	{r3, lr}
 664              		.cfi_def_cfa_offset 8
 665              		.cfi_offset 3, -8
 666              		.cfi_offset 14, -4
 759:Generated_Source\PSoC5/IMU_UART.c ****         uint8 enableInterrupts;
 760:Generated_Source\PSoC5/IMU_UART.c **** 
 761:Generated_Source\PSoC5/IMU_UART.c ****         /* Clear the HW FIFO */
 762:Generated_Source\PSoC5/IMU_UART.c ****         enableInterrupts = CyEnterCriticalSection();
 667              		.loc 1 762 0
 668 0002 FFF7FEFF 		bl	CyEnterCriticalSection
 669              	.LVL53:
 763:Generated_Source\PSoC5/IMU_UART.c ****         IMU_UART_RXDATA_AUX_CTL_REG |= (uint8)  IMU_UART_RX_FIFO_CLR;
 670              		.loc 1 763 0
 671 0006 0B4B     		ldr	r3, .L58
 672 0008 1A78     		ldrb	r2, [r3]	@ zero_extendqisi2
 673 000a 42F00102 		orr	r2, r2, #1
 674 000e 1A70     		strb	r2, [r3]
 764:Generated_Source\PSoC5/IMU_UART.c ****         IMU_UART_RXDATA_AUX_CTL_REG &= (uint8) ~IMU_UART_RX_FIFO_CLR;
 675              		.loc 1 764 0
 676 0010 1A78     		ldrb	r2, [r3]	@ zero_extendqisi2
 677 0012 02F0FE02 		and	r2, r2, #254
 678 0016 1A70     		strb	r2, [r3]
 765:Generated_Source\PSoC5/IMU_UART.c ****         CyExitCriticalSection(enableInterrupts);
 679              		.loc 1 765 0
 680 0018 FFF7FEFF 		bl	CyExitCriticalSection
 681              	.LVL54:
 766:Generated_Source\PSoC5/IMU_UART.c **** 
 767:Generated_Source\PSoC5/IMU_UART.c ****     #if (IMU_UART_RX_INTERRUPT_ENABLED)
 768:Generated_Source\PSoC5/IMU_UART.c **** 
 769:Generated_Source\PSoC5/IMU_UART.c ****         /* Protect variables that could change on interrupt. */
 770:Generated_Source\PSoC5/IMU_UART.c ****         IMU_UART_DisableRxInt();
 682              		.loc 1 770 0
 683 001c 0121     		movs	r1, #1
 684 001e 064B     		ldr	r3, .L58+4
 685 0020 1960     		str	r1, [r3]
 771:Generated_Source\PSoC5/IMU_UART.c **** 
 772:Generated_Source\PSoC5/IMU_UART.c ****         IMU_UART_rxBufferRead = 0u;
 686              		.loc 1 772 0
 687 0022 064B     		ldr	r3, .L58+8
 688 0024 0022     		movs	r2, #0
 689 0026 9A70     		strb	r2, [r3, #2]
 773:Generated_Source\PSoC5/IMU_UART.c ****         IMU_UART_rxBufferWrite = 0u;
 690              		.loc 1 773 0
 691 0028 DA70     		strb	r2, [r3, #3]
 774:Generated_Source\PSoC5/IMU_UART.c ****         IMU_UART_rxBufferLoopDetect = 0u;
 692              		.loc 1 774 0
 693 002a 1A71     		strb	r2, [r3, #4]
 775:Generated_Source\PSoC5/IMU_UART.c ****         IMU_UART_rxBufferOverflow = 0u;
 694              		.loc 1 775 0
 695 002c 5A71     		strb	r2, [r3, #5]
 776:Generated_Source\PSoC5/IMU_UART.c **** 
 777:Generated_Source\PSoC5/IMU_UART.c ****         IMU_UART_EnableRxInt();
 696              		.loc 1 777 0
 697 002e 044B     		ldr	r3, .L58+12
 698 0030 1960     		str	r1, [r3]
ARM GAS  C:\Users\Fischer\AppData\Local\Temp\ccrRMyaW.s 			page 27


 699 0032 08BD     		pop	{r3, pc}
 700              	.L59:
 701              		.align	2
 702              	.L58:
 703 0034 95640040 		.word	1073767573
 704 0038 80E100E0 		.word	-536813184
 705 003c 00000000 		.word	.LANCHOR0
 706 0040 00E100E0 		.word	-536813312
 707              		.cfi_endproc
 708              	.LFE12:
 709              		.size	IMU_UART_ClearRxBuffer, .-IMU_UART_ClearRxBuffer
 710              		.section	.text.IMU_UART_SetRxAddressMode,"ax",%progbits
 711              		.align	2
 712              		.global	IMU_UART_SetRxAddressMode
 713              		.thumb
 714              		.thumb_func
 715              		.type	IMU_UART_SetRxAddressMode, %function
 716              	IMU_UART_SetRxAddressMode:
 717              	.LFB13:
 778:Generated_Source\PSoC5/IMU_UART.c **** 
 779:Generated_Source\PSoC5/IMU_UART.c ****     #endif /* (IMU_UART_RX_INTERRUPT_ENABLED) */
 780:Generated_Source\PSoC5/IMU_UART.c **** 
 781:Generated_Source\PSoC5/IMU_UART.c ****     }
 782:Generated_Source\PSoC5/IMU_UART.c **** 
 783:Generated_Source\PSoC5/IMU_UART.c **** 
 784:Generated_Source\PSoC5/IMU_UART.c ****     /*******************************************************************************
 785:Generated_Source\PSoC5/IMU_UART.c ****     * Function Name: IMU_UART_SetRxAddressMode
 786:Generated_Source\PSoC5/IMU_UART.c ****     ********************************************************************************
 787:Generated_Source\PSoC5/IMU_UART.c ****     *
 788:Generated_Source\PSoC5/IMU_UART.c ****     * Summary:
 789:Generated_Source\PSoC5/IMU_UART.c ****     *  Sets the software controlled Addressing mode used by the RX portion of the
 790:Generated_Source\PSoC5/IMU_UART.c ****     *  UART.
 791:Generated_Source\PSoC5/IMU_UART.c ****     *
 792:Generated_Source\PSoC5/IMU_UART.c ****     * Parameters:
 793:Generated_Source\PSoC5/IMU_UART.c ****     *  addressMode: Enumerated value indicating the mode of RX addressing
 794:Generated_Source\PSoC5/IMU_UART.c ****     *  IMU_UART__B_UART__AM_SW_BYTE_BYTE -  Software Byte-by-Byte address
 795:Generated_Source\PSoC5/IMU_UART.c ****     *                                               detection
 796:Generated_Source\PSoC5/IMU_UART.c ****     *  IMU_UART__B_UART__AM_SW_DETECT_TO_BUFFER - Software Detect to Buffer
 797:Generated_Source\PSoC5/IMU_UART.c ****     *                                               address detection
 798:Generated_Source\PSoC5/IMU_UART.c ****     *  IMU_UART__B_UART__AM_HW_BYTE_BY_BYTE - Hardware Byte-by-Byte address
 799:Generated_Source\PSoC5/IMU_UART.c ****     *                                               detection
 800:Generated_Source\PSoC5/IMU_UART.c ****     *  IMU_UART__B_UART__AM_HW_DETECT_TO_BUFFER - Hardware Detect to Buffer
 801:Generated_Source\PSoC5/IMU_UART.c ****     *                                               address detection
 802:Generated_Source\PSoC5/IMU_UART.c ****     *  IMU_UART__B_UART__AM_NONE - No address detection
 803:Generated_Source\PSoC5/IMU_UART.c ****     *
 804:Generated_Source\PSoC5/IMU_UART.c ****     * Return:
 805:Generated_Source\PSoC5/IMU_UART.c ****     *  None.
 806:Generated_Source\PSoC5/IMU_UART.c ****     *
 807:Generated_Source\PSoC5/IMU_UART.c ****     * Global Variables:
 808:Generated_Source\PSoC5/IMU_UART.c ****     *  IMU_UART_rxAddressMode - the parameter stored in this variable for
 809:Generated_Source\PSoC5/IMU_UART.c ****     *   the farther usage in RX ISR.
 810:Generated_Source\PSoC5/IMU_UART.c ****     *  IMU_UART_rxAddressDetected - set to initial state (0).
 811:Generated_Source\PSoC5/IMU_UART.c ****     *
 812:Generated_Source\PSoC5/IMU_UART.c ****     *******************************************************************************/
 813:Generated_Source\PSoC5/IMU_UART.c ****     void IMU_UART_SetRxAddressMode(uint8 addressMode)
 814:Generated_Source\PSoC5/IMU_UART.c ****                                                         
 815:Generated_Source\PSoC5/IMU_UART.c ****     {
ARM GAS  C:\Users\Fischer\AppData\Local\Temp\ccrRMyaW.s 			page 28


 718              		.loc 1 815 0
 719              		.cfi_startproc
 720              		@ args = 0, pretend = 0, frame = 0
 721              		@ frame_needed = 0, uses_anonymous_args = 0
 722              		@ link register save eliminated.
 723              	.LVL55:
 724 0000 7047     		bx	lr
 725              		.cfi_endproc
 726              	.LFE13:
 727              		.size	IMU_UART_SetRxAddressMode, .-IMU_UART_SetRxAddressMode
 728 0002 00BF     		.section	.text.IMU_UART_SetRxAddress1,"ax",%progbits
 729              		.align	2
 730              		.global	IMU_UART_SetRxAddress1
 731              		.thumb
 732              		.thumb_func
 733              		.type	IMU_UART_SetRxAddress1, %function
 734              	IMU_UART_SetRxAddress1:
 735              	.LFB14:
 816:Generated_Source\PSoC5/IMU_UART.c ****         #if(IMU_UART_RXHW_ADDRESS_ENABLED)
 817:Generated_Source\PSoC5/IMU_UART.c ****             #if(IMU_UART_CONTROL_REG_REMOVED)
 818:Generated_Source\PSoC5/IMU_UART.c ****                 if(0u != addressMode)
 819:Generated_Source\PSoC5/IMU_UART.c ****                 {
 820:Generated_Source\PSoC5/IMU_UART.c ****                     /* Suppress compiler warning */
 821:Generated_Source\PSoC5/IMU_UART.c ****                 }
 822:Generated_Source\PSoC5/IMU_UART.c ****             #else /* IMU_UART_CONTROL_REG_REMOVED */
 823:Generated_Source\PSoC5/IMU_UART.c ****                 uint8 tmpCtrl;
 824:Generated_Source\PSoC5/IMU_UART.c ****                 tmpCtrl = IMU_UART_CONTROL_REG & (uint8)~IMU_UART_CTRL_RXADDR_MODE_MASK;
 825:Generated_Source\PSoC5/IMU_UART.c ****                 tmpCtrl |= (uint8)(addressMode << IMU_UART_CTRL_RXADDR_MODE0_SHIFT);
 826:Generated_Source\PSoC5/IMU_UART.c ****                 IMU_UART_CONTROL_REG = tmpCtrl;
 827:Generated_Source\PSoC5/IMU_UART.c **** 
 828:Generated_Source\PSoC5/IMU_UART.c ****                 #if(IMU_UART_RX_INTERRUPT_ENABLED && \
 829:Generated_Source\PSoC5/IMU_UART.c ****                    (IMU_UART_RXBUFFERSIZE > IMU_UART_FIFO_LENGTH) )
 830:Generated_Source\PSoC5/IMU_UART.c ****                     IMU_UART_rxAddressMode = addressMode;
 831:Generated_Source\PSoC5/IMU_UART.c ****                     IMU_UART_rxAddressDetected = 0u;
 832:Generated_Source\PSoC5/IMU_UART.c ****                 #endif /* End IMU_UART_RXBUFFERSIZE > IMU_UART_FIFO_LENGTH*/
 833:Generated_Source\PSoC5/IMU_UART.c ****             #endif /* End IMU_UART_CONTROL_REG_REMOVED */
 834:Generated_Source\PSoC5/IMU_UART.c ****         #else /* IMU_UART_RXHW_ADDRESS_ENABLED */
 835:Generated_Source\PSoC5/IMU_UART.c ****             if(0u != addressMode)
 836:Generated_Source\PSoC5/IMU_UART.c ****             {
 837:Generated_Source\PSoC5/IMU_UART.c ****                 /* Suppress compiler warning */
 838:Generated_Source\PSoC5/IMU_UART.c ****             }
 839:Generated_Source\PSoC5/IMU_UART.c ****         #endif /* End IMU_UART_RXHW_ADDRESS_ENABLED */
 840:Generated_Source\PSoC5/IMU_UART.c ****     }
 841:Generated_Source\PSoC5/IMU_UART.c **** 
 842:Generated_Source\PSoC5/IMU_UART.c **** 
 843:Generated_Source\PSoC5/IMU_UART.c ****     /*******************************************************************************
 844:Generated_Source\PSoC5/IMU_UART.c ****     * Function Name: IMU_UART_SetRxAddress1
 845:Generated_Source\PSoC5/IMU_UART.c ****     ********************************************************************************
 846:Generated_Source\PSoC5/IMU_UART.c ****     *
 847:Generated_Source\PSoC5/IMU_UART.c ****     * Summary:
 848:Generated_Source\PSoC5/IMU_UART.c ****     *  Sets the first of two hardware-detectable receiver addresses.
 849:Generated_Source\PSoC5/IMU_UART.c ****     *
 850:Generated_Source\PSoC5/IMU_UART.c ****     * Parameters:
 851:Generated_Source\PSoC5/IMU_UART.c ****     *  address: Address #1 for hardware address detection.
 852:Generated_Source\PSoC5/IMU_UART.c ****     *
 853:Generated_Source\PSoC5/IMU_UART.c ****     * Return:
 854:Generated_Source\PSoC5/IMU_UART.c ****     *  None.
ARM GAS  C:\Users\Fischer\AppData\Local\Temp\ccrRMyaW.s 			page 29


 855:Generated_Source\PSoC5/IMU_UART.c ****     *
 856:Generated_Source\PSoC5/IMU_UART.c ****     *******************************************************************************/
 857:Generated_Source\PSoC5/IMU_UART.c ****     void IMU_UART_SetRxAddress1(uint8 address) 
 858:Generated_Source\PSoC5/IMU_UART.c ****     {
 736              		.loc 1 858 0
 737              		.cfi_startproc
 738              		@ args = 0, pretend = 0, frame = 0
 739              		@ frame_needed = 0, uses_anonymous_args = 0
 740              		@ link register save eliminated.
 741              	.LVL56:
 859:Generated_Source\PSoC5/IMU_UART.c ****         IMU_UART_RXADDRESS1_REG = address;
 742              		.loc 1 859 0
 743 0000 014B     		ldr	r3, .L62
 744 0002 1870     		strb	r0, [r3]
 745 0004 7047     		bx	lr
 746              	.L63:
 747 0006 00BF     		.align	2
 748              	.L62:
 749 0008 25640040 		.word	1073767461
 750              		.cfi_endproc
 751              	.LFE14:
 752              		.size	IMU_UART_SetRxAddress1, .-IMU_UART_SetRxAddress1
 753              		.section	.text.IMU_UART_SetRxAddress2,"ax",%progbits
 754              		.align	2
 755              		.global	IMU_UART_SetRxAddress2
 756              		.thumb
 757              		.thumb_func
 758              		.type	IMU_UART_SetRxAddress2, %function
 759              	IMU_UART_SetRxAddress2:
 760              	.LFB15:
 860:Generated_Source\PSoC5/IMU_UART.c ****     }
 861:Generated_Source\PSoC5/IMU_UART.c **** 
 862:Generated_Source\PSoC5/IMU_UART.c **** 
 863:Generated_Source\PSoC5/IMU_UART.c ****     /*******************************************************************************
 864:Generated_Source\PSoC5/IMU_UART.c ****     * Function Name: IMU_UART_SetRxAddress2
 865:Generated_Source\PSoC5/IMU_UART.c ****     ********************************************************************************
 866:Generated_Source\PSoC5/IMU_UART.c ****     *
 867:Generated_Source\PSoC5/IMU_UART.c ****     * Summary:
 868:Generated_Source\PSoC5/IMU_UART.c ****     *  Sets the second of two hardware-detectable receiver addresses.
 869:Generated_Source\PSoC5/IMU_UART.c ****     *
 870:Generated_Source\PSoC5/IMU_UART.c ****     * Parameters:
 871:Generated_Source\PSoC5/IMU_UART.c ****     *  address: Address #2 for hardware address detection.
 872:Generated_Source\PSoC5/IMU_UART.c ****     *
 873:Generated_Source\PSoC5/IMU_UART.c ****     * Return:
 874:Generated_Source\PSoC5/IMU_UART.c ****     *  None.
 875:Generated_Source\PSoC5/IMU_UART.c ****     *
 876:Generated_Source\PSoC5/IMU_UART.c ****     *******************************************************************************/
 877:Generated_Source\PSoC5/IMU_UART.c ****     void IMU_UART_SetRxAddress2(uint8 address) 
 878:Generated_Source\PSoC5/IMU_UART.c ****     {
 761              		.loc 1 878 0
 762              		.cfi_startproc
 763              		@ args = 0, pretend = 0, frame = 0
 764              		@ frame_needed = 0, uses_anonymous_args = 0
 765              		@ link register save eliminated.
 766              	.LVL57:
 879:Generated_Source\PSoC5/IMU_UART.c ****         IMU_UART_RXADDRESS2_REG = address;
 767              		.loc 1 879 0
ARM GAS  C:\Users\Fischer\AppData\Local\Temp\ccrRMyaW.s 			page 30


 768 0000 014B     		ldr	r3, .L65
 769 0002 1870     		strb	r0, [r3]
 770 0004 7047     		bx	lr
 771              	.L66:
 772 0006 00BF     		.align	2
 773              	.L65:
 774 0008 35640040 		.word	1073767477
 775              		.cfi_endproc
 776              	.LFE15:
 777              		.size	IMU_UART_SetRxAddress2, .-IMU_UART_SetRxAddress2
 778              		.global	IMU_UART_rxBufferOverflow
 779              		.global	IMU_UART_rxBufferLoopDetect
 780              		.global	IMU_UART_rxBufferWrite
 781              		.global	IMU_UART_rxBufferRead
 782              		.comm	IMU_UART_rxBuffer,20,4
 783              		.global	IMU_UART_errorStatus
 784              		.global	IMU_UART_initVar
 785              		.bss
 786              		.set	.LANCHOR0,. + 0
 787              		.type	IMU_UART_errorStatus, %object
 788              		.size	IMU_UART_errorStatus, 1
 789              	IMU_UART_errorStatus:
 790 0000 00       		.space	1
 791              		.type	IMU_UART_initVar, %object
 792              		.size	IMU_UART_initVar, 1
 793              	IMU_UART_initVar:
 794 0001 00       		.space	1
 795              		.type	IMU_UART_rxBufferRead, %object
 796              		.size	IMU_UART_rxBufferRead, 1
 797              	IMU_UART_rxBufferRead:
 798 0002 00       		.space	1
 799              		.type	IMU_UART_rxBufferWrite, %object
 800              		.size	IMU_UART_rxBufferWrite, 1
 801              	IMU_UART_rxBufferWrite:
 802 0003 00       		.space	1
 803              		.type	IMU_UART_rxBufferLoopDetect, %object
 804              		.size	IMU_UART_rxBufferLoopDetect, 1
 805              	IMU_UART_rxBufferLoopDetect:
 806 0004 00       		.space	1
 807              		.type	IMU_UART_rxBufferOverflow, %object
 808              		.size	IMU_UART_rxBufferOverflow, 1
 809              	IMU_UART_rxBufferOverflow:
 810 0005 00       		.space	1
 811              		.text
 812              	.Letext0:
 813              		.file 2 "Generated_Source\\PSoC5\\cytypes.h"
 814              		.file 3 "Generated_Source\\PSoC5\\CyLib.h"
 815              		.file 4 "Generated_Source\\PSoC5\\IMU_UART_IntClock.h"