ARM GAS  C:\Users\Fischer\AppData\Local\Temp\ccxynkId.s 			page 1


   1              		.syntax unified
   2              		.cpu cortex-m3
   3              		.fpu softvfp
   4              		.eabi_attribute 20, 1
   5              		.eabi_attribute 21, 1
   6              		.eabi_attribute 23, 3
   7              		.eabi_attribute 24, 1
   8              		.eabi_attribute 25, 1
   9              		.eabi_attribute 26, 1
  10              		.eabi_attribute 30, 1
  11              		.eabi_attribute 34, 1
  12              		.eabi_attribute 18, 4
  13              		.thumb
  14              		.syntax unified
  15              		.file	"IMU_UART_PM.c"
  16              		.text
  17              	.Ltext0:
  18              		.cfi_sections	.debug_frame
  19              		.section	.text.IMU_UART_SaveConfig,"ax",%progbits
  20              		.align	2
  21              		.global	IMU_UART_SaveConfig
  22              		.thumb
  23              		.thumb_func
  24              		.type	IMU_UART_SaveConfig, %function
  25              	IMU_UART_SaveConfig:
  26              	.LFB0:
  27              		.file 1 "Generated_Source\\PSoC5\\IMU_UART_PM.c"
   1:Generated_Source\PSoC5/IMU_UART_PM.c **** /*******************************************************************************
   2:Generated_Source\PSoC5/IMU_UART_PM.c **** * File Name: IMU_UART_PM.c
   3:Generated_Source\PSoC5/IMU_UART_PM.c **** * Version 2.50
   4:Generated_Source\PSoC5/IMU_UART_PM.c **** *
   5:Generated_Source\PSoC5/IMU_UART_PM.c **** * Description:
   6:Generated_Source\PSoC5/IMU_UART_PM.c **** *  This file provides Sleep/WakeUp APIs functionality.
   7:Generated_Source\PSoC5/IMU_UART_PM.c **** *
   8:Generated_Source\PSoC5/IMU_UART_PM.c **** * Note:
   9:Generated_Source\PSoC5/IMU_UART_PM.c **** *
  10:Generated_Source\PSoC5/IMU_UART_PM.c **** ********************************************************************************
  11:Generated_Source\PSoC5/IMU_UART_PM.c **** * Copyright 2008-2015, Cypress Semiconductor Corporation.  All rights reserved.
  12:Generated_Source\PSoC5/IMU_UART_PM.c **** * You may use this file only in accordance with the license, terms, conditions,
  13:Generated_Source\PSoC5/IMU_UART_PM.c **** * disclaimers, and limitations in the end user license agreement accompanying
  14:Generated_Source\PSoC5/IMU_UART_PM.c **** * the software package with which this file was provided.
  15:Generated_Source\PSoC5/IMU_UART_PM.c **** *******************************************************************************/
  16:Generated_Source\PSoC5/IMU_UART_PM.c **** 
  17:Generated_Source\PSoC5/IMU_UART_PM.c **** #include "IMU_UART.h"
  18:Generated_Source\PSoC5/IMU_UART_PM.c **** 
  19:Generated_Source\PSoC5/IMU_UART_PM.c **** 
  20:Generated_Source\PSoC5/IMU_UART_PM.c **** /***************************************
  21:Generated_Source\PSoC5/IMU_UART_PM.c **** * Local data allocation
  22:Generated_Source\PSoC5/IMU_UART_PM.c **** ***************************************/
  23:Generated_Source\PSoC5/IMU_UART_PM.c **** 
  24:Generated_Source\PSoC5/IMU_UART_PM.c **** static IMU_UART_BACKUP_STRUCT  IMU_UART_backup =
  25:Generated_Source\PSoC5/IMU_UART_PM.c **** {
  26:Generated_Source\PSoC5/IMU_UART_PM.c ****     /* enableState - disabled */
  27:Generated_Source\PSoC5/IMU_UART_PM.c ****     0u,
  28:Generated_Source\PSoC5/IMU_UART_PM.c **** };
  29:Generated_Source\PSoC5/IMU_UART_PM.c **** 
  30:Generated_Source\PSoC5/IMU_UART_PM.c **** 
ARM GAS  C:\Users\Fischer\AppData\Local\Temp\ccxynkId.s 			page 2


  31:Generated_Source\PSoC5/IMU_UART_PM.c **** 
  32:Generated_Source\PSoC5/IMU_UART_PM.c **** /*******************************************************************************
  33:Generated_Source\PSoC5/IMU_UART_PM.c **** * Function Name: IMU_UART_SaveConfig
  34:Generated_Source\PSoC5/IMU_UART_PM.c **** ********************************************************************************
  35:Generated_Source\PSoC5/IMU_UART_PM.c **** *
  36:Generated_Source\PSoC5/IMU_UART_PM.c **** * Summary:
  37:Generated_Source\PSoC5/IMU_UART_PM.c **** *  This function saves the component nonretention control register.
  38:Generated_Source\PSoC5/IMU_UART_PM.c **** *  Does not save the FIFO which is a set of nonretention registers.
  39:Generated_Source\PSoC5/IMU_UART_PM.c **** *  This function is called by the IMU_UART_Sleep() function.
  40:Generated_Source\PSoC5/IMU_UART_PM.c **** *
  41:Generated_Source\PSoC5/IMU_UART_PM.c **** * Parameters:
  42:Generated_Source\PSoC5/IMU_UART_PM.c **** *  None.
  43:Generated_Source\PSoC5/IMU_UART_PM.c **** *
  44:Generated_Source\PSoC5/IMU_UART_PM.c **** * Return:
  45:Generated_Source\PSoC5/IMU_UART_PM.c **** *  None.
  46:Generated_Source\PSoC5/IMU_UART_PM.c **** *
  47:Generated_Source\PSoC5/IMU_UART_PM.c **** * Global Variables:
  48:Generated_Source\PSoC5/IMU_UART_PM.c **** *  IMU_UART_backup - modified when non-retention registers are saved.
  49:Generated_Source\PSoC5/IMU_UART_PM.c **** *
  50:Generated_Source\PSoC5/IMU_UART_PM.c **** * Reentrant:
  51:Generated_Source\PSoC5/IMU_UART_PM.c **** *  No.
  52:Generated_Source\PSoC5/IMU_UART_PM.c **** *
  53:Generated_Source\PSoC5/IMU_UART_PM.c **** *******************************************************************************/
  54:Generated_Source\PSoC5/IMU_UART_PM.c **** void IMU_UART_SaveConfig(void)
  55:Generated_Source\PSoC5/IMU_UART_PM.c **** {
  28              		.loc 1 55 0
  29              		.cfi_startproc
  30              		@ args = 0, pretend = 0, frame = 0
  31              		@ frame_needed = 0, uses_anonymous_args = 0
  32              		@ link register save eliminated.
  33 0000 7047     		bx	lr
  34              		.cfi_endproc
  35              	.LFE0:
  36              		.size	IMU_UART_SaveConfig, .-IMU_UART_SaveConfig
  37 0002 00BF     		.section	.text.IMU_UART_RestoreConfig,"ax",%progbits
  38              		.align	2
  39              		.global	IMU_UART_RestoreConfig
  40              		.thumb
  41              		.thumb_func
  42              		.type	IMU_UART_RestoreConfig, %function
  43              	IMU_UART_RestoreConfig:
  44              	.LFB1:
  56:Generated_Source\PSoC5/IMU_UART_PM.c ****     #if(IMU_UART_CONTROL_REG_REMOVED == 0u)
  57:Generated_Source\PSoC5/IMU_UART_PM.c ****         IMU_UART_backup.cr = IMU_UART_CONTROL_REG;
  58:Generated_Source\PSoC5/IMU_UART_PM.c ****     #endif /* End IMU_UART_CONTROL_REG_REMOVED */
  59:Generated_Source\PSoC5/IMU_UART_PM.c **** }
  60:Generated_Source\PSoC5/IMU_UART_PM.c **** 
  61:Generated_Source\PSoC5/IMU_UART_PM.c **** 
  62:Generated_Source\PSoC5/IMU_UART_PM.c **** /*******************************************************************************
  63:Generated_Source\PSoC5/IMU_UART_PM.c **** * Function Name: IMU_UART_RestoreConfig
  64:Generated_Source\PSoC5/IMU_UART_PM.c **** ********************************************************************************
  65:Generated_Source\PSoC5/IMU_UART_PM.c **** *
  66:Generated_Source\PSoC5/IMU_UART_PM.c **** * Summary:
  67:Generated_Source\PSoC5/IMU_UART_PM.c **** *  Restores the nonretention control register except FIFO.
  68:Generated_Source\PSoC5/IMU_UART_PM.c **** *  Does not restore the FIFO which is a set of nonretention registers.
  69:Generated_Source\PSoC5/IMU_UART_PM.c **** *
  70:Generated_Source\PSoC5/IMU_UART_PM.c **** * Parameters:
ARM GAS  C:\Users\Fischer\AppData\Local\Temp\ccxynkId.s 			page 3


  71:Generated_Source\PSoC5/IMU_UART_PM.c **** *  None.
  72:Generated_Source\PSoC5/IMU_UART_PM.c **** *
  73:Generated_Source\PSoC5/IMU_UART_PM.c **** * Return:
  74:Generated_Source\PSoC5/IMU_UART_PM.c **** *  None.
  75:Generated_Source\PSoC5/IMU_UART_PM.c **** *
  76:Generated_Source\PSoC5/IMU_UART_PM.c **** * Global Variables:
  77:Generated_Source\PSoC5/IMU_UART_PM.c **** *  IMU_UART_backup - used when non-retention registers are restored.
  78:Generated_Source\PSoC5/IMU_UART_PM.c **** *
  79:Generated_Source\PSoC5/IMU_UART_PM.c **** * Reentrant:
  80:Generated_Source\PSoC5/IMU_UART_PM.c **** *  No.
  81:Generated_Source\PSoC5/IMU_UART_PM.c **** *
  82:Generated_Source\PSoC5/IMU_UART_PM.c **** * Notes:
  83:Generated_Source\PSoC5/IMU_UART_PM.c **** *  If this function is called without calling IMU_UART_SaveConfig() 
  84:Generated_Source\PSoC5/IMU_UART_PM.c **** *  first, the data loaded may be incorrect.
  85:Generated_Source\PSoC5/IMU_UART_PM.c **** *
  86:Generated_Source\PSoC5/IMU_UART_PM.c **** *******************************************************************************/
  87:Generated_Source\PSoC5/IMU_UART_PM.c **** void IMU_UART_RestoreConfig(void)
  88:Generated_Source\PSoC5/IMU_UART_PM.c **** {
  45              		.loc 1 88 0
  46              		.cfi_startproc
  47              		@ args = 0, pretend = 0, frame = 0
  48              		@ frame_needed = 0, uses_anonymous_args = 0
  49              		@ link register save eliminated.
  50 0000 7047     		bx	lr
  51              		.cfi_endproc
  52              	.LFE1:
  53              		.size	IMU_UART_RestoreConfig, .-IMU_UART_RestoreConfig
  54 0002 00BF     		.section	.text.IMU_UART_Sleep,"ax",%progbits
  55              		.align	2
  56              		.global	IMU_UART_Sleep
  57              		.thumb
  58              		.thumb_func
  59              		.type	IMU_UART_Sleep, %function
  60              	IMU_UART_Sleep:
  61              	.LFB2:
  89:Generated_Source\PSoC5/IMU_UART_PM.c ****     #if(IMU_UART_CONTROL_REG_REMOVED == 0u)
  90:Generated_Source\PSoC5/IMU_UART_PM.c ****         IMU_UART_CONTROL_REG = IMU_UART_backup.cr;
  91:Generated_Source\PSoC5/IMU_UART_PM.c ****     #endif /* End IMU_UART_CONTROL_REG_REMOVED */
  92:Generated_Source\PSoC5/IMU_UART_PM.c **** }
  93:Generated_Source\PSoC5/IMU_UART_PM.c **** 
  94:Generated_Source\PSoC5/IMU_UART_PM.c **** 
  95:Generated_Source\PSoC5/IMU_UART_PM.c **** /*******************************************************************************
  96:Generated_Source\PSoC5/IMU_UART_PM.c **** * Function Name: IMU_UART_Sleep
  97:Generated_Source\PSoC5/IMU_UART_PM.c **** ********************************************************************************
  98:Generated_Source\PSoC5/IMU_UART_PM.c **** *
  99:Generated_Source\PSoC5/IMU_UART_PM.c **** * Summary:
 100:Generated_Source\PSoC5/IMU_UART_PM.c **** *  This is the preferred API to prepare the component for sleep. 
 101:Generated_Source\PSoC5/IMU_UART_PM.c **** *  The IMU_UART_Sleep() API saves the current component state. Then it
 102:Generated_Source\PSoC5/IMU_UART_PM.c **** *  calls the IMU_UART_Stop() function and calls 
 103:Generated_Source\PSoC5/IMU_UART_PM.c **** *  IMU_UART_SaveConfig() to save the hardware configuration.
 104:Generated_Source\PSoC5/IMU_UART_PM.c **** *  Call the IMU_UART_Sleep() function before calling the CyPmSleep() 
 105:Generated_Source\PSoC5/IMU_UART_PM.c **** *  or the CyPmHibernate() function. 
 106:Generated_Source\PSoC5/IMU_UART_PM.c **** *
 107:Generated_Source\PSoC5/IMU_UART_PM.c **** * Parameters:
 108:Generated_Source\PSoC5/IMU_UART_PM.c **** *  None.
 109:Generated_Source\PSoC5/IMU_UART_PM.c **** *
 110:Generated_Source\PSoC5/IMU_UART_PM.c **** * Return:
ARM GAS  C:\Users\Fischer\AppData\Local\Temp\ccxynkId.s 			page 4


 111:Generated_Source\PSoC5/IMU_UART_PM.c **** *  None.
 112:Generated_Source\PSoC5/IMU_UART_PM.c **** *
 113:Generated_Source\PSoC5/IMU_UART_PM.c **** * Global Variables:
 114:Generated_Source\PSoC5/IMU_UART_PM.c **** *  IMU_UART_backup - modified when non-retention registers are saved.
 115:Generated_Source\PSoC5/IMU_UART_PM.c **** *
 116:Generated_Source\PSoC5/IMU_UART_PM.c **** * Reentrant:
 117:Generated_Source\PSoC5/IMU_UART_PM.c **** *  No.
 118:Generated_Source\PSoC5/IMU_UART_PM.c **** *
 119:Generated_Source\PSoC5/IMU_UART_PM.c **** *******************************************************************************/
 120:Generated_Source\PSoC5/IMU_UART_PM.c **** void IMU_UART_Sleep(void)
 121:Generated_Source\PSoC5/IMU_UART_PM.c **** {
  62              		.loc 1 121 0
  63              		.cfi_startproc
  64              		@ args = 0, pretend = 0, frame = 0
  65              		@ frame_needed = 0, uses_anonymous_args = 0
  66              		.loc 1 121 0
  67 0000 08B5     		push	{r3, lr}
  68              		.cfi_def_cfa_offset 8
  69              		.cfi_offset 3, -8
  70              		.cfi_offset 14, -4
 122:Generated_Source\PSoC5/IMU_UART_PM.c ****     #if(IMU_UART_RX_ENABLED || IMU_UART_HD_ENABLED)
 123:Generated_Source\PSoC5/IMU_UART_PM.c ****         if((IMU_UART_RXSTATUS_ACTL_REG  & IMU_UART_INT_ENABLE) != 0u)
  71              		.loc 1 123 0
  72 0002 074B     		ldr	r3, .L7
  73 0004 1B78     		ldrb	r3, [r3]	@ zero_extendqisi2
  74 0006 13F0100F 		tst	r3, #16
  75 000a 03D0     		beq	.L4
 124:Generated_Source\PSoC5/IMU_UART_PM.c ****         {
 125:Generated_Source\PSoC5/IMU_UART_PM.c ****             IMU_UART_backup.enableState = 1u;
  76              		.loc 1 125 0
  77 000c 0122     		movs	r2, #1
  78 000e 054B     		ldr	r3, .L7+4
  79 0010 1A70     		strb	r2, [r3]
  80 0012 02E0     		b	.L5
  81              	.L4:
 126:Generated_Source\PSoC5/IMU_UART_PM.c ****         }
 127:Generated_Source\PSoC5/IMU_UART_PM.c ****         else
 128:Generated_Source\PSoC5/IMU_UART_PM.c ****         {
 129:Generated_Source\PSoC5/IMU_UART_PM.c ****             IMU_UART_backup.enableState = 0u;
  82              		.loc 1 129 0
  83 0014 0022     		movs	r2, #0
  84 0016 034B     		ldr	r3, .L7+4
  85 0018 1A70     		strb	r2, [r3]
  86              	.L5:
 130:Generated_Source\PSoC5/IMU_UART_PM.c ****         }
 131:Generated_Source\PSoC5/IMU_UART_PM.c ****     #else
 132:Generated_Source\PSoC5/IMU_UART_PM.c ****         if((IMU_UART_TXSTATUS_ACTL_REG  & IMU_UART_INT_ENABLE) !=0u)
 133:Generated_Source\PSoC5/IMU_UART_PM.c ****         {
 134:Generated_Source\PSoC5/IMU_UART_PM.c ****             IMU_UART_backup.enableState = 1u;
 135:Generated_Source\PSoC5/IMU_UART_PM.c ****         }
 136:Generated_Source\PSoC5/IMU_UART_PM.c ****         else
 137:Generated_Source\PSoC5/IMU_UART_PM.c ****         {
 138:Generated_Source\PSoC5/IMU_UART_PM.c ****             IMU_UART_backup.enableState = 0u;
 139:Generated_Source\PSoC5/IMU_UART_PM.c ****         }
 140:Generated_Source\PSoC5/IMU_UART_PM.c ****     #endif /* End IMU_UART_RX_ENABLED || IMU_UART_HD_ENABLED*/
 141:Generated_Source\PSoC5/IMU_UART_PM.c **** 
 142:Generated_Source\PSoC5/IMU_UART_PM.c ****     IMU_UART_Stop();
ARM GAS  C:\Users\Fischer\AppData\Local\Temp\ccxynkId.s 			page 5


  87              		.loc 1 142 0
  88 001a FFF7FEFF 		bl	IMU_UART_Stop
  89              	.LVL0:
  90 001e 08BD     		pop	{r3, pc}
  91              	.L8:
  92              		.align	2
  93              	.L7:
  94 0020 96640040 		.word	1073767574
  95 0024 00000000 		.word	.LANCHOR0
  96              		.cfi_endproc
  97              	.LFE2:
  98              		.size	IMU_UART_Sleep, .-IMU_UART_Sleep
  99              		.section	.text.IMU_UART_Wakeup,"ax",%progbits
 100              		.align	2
 101              		.global	IMU_UART_Wakeup
 102              		.thumb
 103              		.thumb_func
 104              		.type	IMU_UART_Wakeup, %function
 105              	IMU_UART_Wakeup:
 106              	.LFB3:
 143:Generated_Source\PSoC5/IMU_UART_PM.c ****     IMU_UART_SaveConfig();
 144:Generated_Source\PSoC5/IMU_UART_PM.c **** }
 145:Generated_Source\PSoC5/IMU_UART_PM.c **** 
 146:Generated_Source\PSoC5/IMU_UART_PM.c **** 
 147:Generated_Source\PSoC5/IMU_UART_PM.c **** /*******************************************************************************
 148:Generated_Source\PSoC5/IMU_UART_PM.c **** * Function Name: IMU_UART_Wakeup
 149:Generated_Source\PSoC5/IMU_UART_PM.c **** ********************************************************************************
 150:Generated_Source\PSoC5/IMU_UART_PM.c **** *
 151:Generated_Source\PSoC5/IMU_UART_PM.c **** * Summary:
 152:Generated_Source\PSoC5/IMU_UART_PM.c **** *  This is the preferred API to restore the component to the state when 
 153:Generated_Source\PSoC5/IMU_UART_PM.c **** *  IMU_UART_Sleep() was called. The IMU_UART_Wakeup() function
 154:Generated_Source\PSoC5/IMU_UART_PM.c **** *  calls the IMU_UART_RestoreConfig() function to restore the 
 155:Generated_Source\PSoC5/IMU_UART_PM.c **** *  configuration. If the component was enabled before the 
 156:Generated_Source\PSoC5/IMU_UART_PM.c **** *  IMU_UART_Sleep() function was called, the IMU_UART_Wakeup()
 157:Generated_Source\PSoC5/IMU_UART_PM.c **** *  function will also re-enable the component.
 158:Generated_Source\PSoC5/IMU_UART_PM.c **** *
 159:Generated_Source\PSoC5/IMU_UART_PM.c **** * Parameters:
 160:Generated_Source\PSoC5/IMU_UART_PM.c **** *  None.
 161:Generated_Source\PSoC5/IMU_UART_PM.c **** *
 162:Generated_Source\PSoC5/IMU_UART_PM.c **** * Return:
 163:Generated_Source\PSoC5/IMU_UART_PM.c **** *  None.
 164:Generated_Source\PSoC5/IMU_UART_PM.c **** *
 165:Generated_Source\PSoC5/IMU_UART_PM.c **** * Global Variables:
 166:Generated_Source\PSoC5/IMU_UART_PM.c **** *  IMU_UART_backup - used when non-retention registers are restored.
 167:Generated_Source\PSoC5/IMU_UART_PM.c **** *
 168:Generated_Source\PSoC5/IMU_UART_PM.c **** * Reentrant:
 169:Generated_Source\PSoC5/IMU_UART_PM.c **** *  No.
 170:Generated_Source\PSoC5/IMU_UART_PM.c **** *
 171:Generated_Source\PSoC5/IMU_UART_PM.c **** *******************************************************************************/
 172:Generated_Source\PSoC5/IMU_UART_PM.c **** void IMU_UART_Wakeup(void)
 173:Generated_Source\PSoC5/IMU_UART_PM.c **** {
 107              		.loc 1 173 0
 108              		.cfi_startproc
 109              		@ args = 0, pretend = 0, frame = 0
 110              		@ frame_needed = 0, uses_anonymous_args = 0
 111 0000 08B5     		push	{r3, lr}
 112              		.cfi_def_cfa_offset 8
ARM GAS  C:\Users\Fischer\AppData\Local\Temp\ccxynkId.s 			page 6


 113              		.cfi_offset 3, -8
 114              		.cfi_offset 14, -4
 174:Generated_Source\PSoC5/IMU_UART_PM.c ****     IMU_UART_RestoreConfig();
 175:Generated_Source\PSoC5/IMU_UART_PM.c ****     #if( (IMU_UART_RX_ENABLED) || (IMU_UART_HD_ENABLED) )
 176:Generated_Source\PSoC5/IMU_UART_PM.c ****         IMU_UART_ClearRxBuffer();
 115              		.loc 1 176 0
 116 0002 FFF7FEFF 		bl	IMU_UART_ClearRxBuffer
 117              	.LVL1:
 177:Generated_Source\PSoC5/IMU_UART_PM.c ****     #endif /* End (IMU_UART_RX_ENABLED) || (IMU_UART_HD_ENABLED) */
 178:Generated_Source\PSoC5/IMU_UART_PM.c ****     #if(IMU_UART_TX_ENABLED || IMU_UART_HD_ENABLED)
 179:Generated_Source\PSoC5/IMU_UART_PM.c ****         IMU_UART_ClearTxBuffer();
 180:Generated_Source\PSoC5/IMU_UART_PM.c ****     #endif /* End IMU_UART_TX_ENABLED || IMU_UART_HD_ENABLED */
 181:Generated_Source\PSoC5/IMU_UART_PM.c **** 
 182:Generated_Source\PSoC5/IMU_UART_PM.c ****     if(IMU_UART_backup.enableState != 0u)
 118              		.loc 1 182 0
 119 0006 034B     		ldr	r3, .L12
 120 0008 1B78     		ldrb	r3, [r3]	@ zero_extendqisi2
 121 000a 0BB1     		cbz	r3, .L9
 183:Generated_Source\PSoC5/IMU_UART_PM.c ****     {
 184:Generated_Source\PSoC5/IMU_UART_PM.c ****         IMU_UART_Enable();
 122              		.loc 1 184 0
 123 000c FFF7FEFF 		bl	IMU_UART_Enable
 124              	.LVL2:
 125              	.L9:
 126 0010 08BD     		pop	{r3, pc}
 127              	.L13:
 128 0012 00BF     		.align	2
 129              	.L12:
 130 0014 00000000 		.word	.LANCHOR0
 131              		.cfi_endproc
 132              	.LFE3:
 133              		.size	IMU_UART_Wakeup, .-IMU_UART_Wakeup
 134              		.bss
 135              		.align	2
 136              		.set	.LANCHOR0,. + 0
 137              		.type	IMU_UART_backup, %object
 138              		.size	IMU_UART_backup, 1
 139              	IMU_UART_backup:
 140 0000 00       		.space	1
 141              		.text
 142              	.Letext0:
 143              		.file 2 "Generated_Source\\PSoC5\\cytypes.h"
 144              		.file 3 "Generated_Source\\PSoC5\\IMU_UART.h"