ARM GAS  C:\Users\Fischer\AppData\Local\Temp\ccfAOyXX.s 			page 1


   1              		.syntax unified
   2              		.cpu cortex-m3
   3              		.fpu softvfp
   4              		.eabi_attribute 20, 1
   5              		.eabi_attribute 21, 1
   6              		.eabi_attribute 23, 3
   7              		.eabi_attribute 24, 1
   8              		.eabi_attribute 25, 1
   9              		.eabi_attribute 26, 1
  10              		.eabi_attribute 30, 1
  11              		.eabi_attribute 34, 1
  12              		.eabi_attribute 18, 4
  13              		.thumb
  14              		.syntax unified
  15              		.file	"main.c"
  16              		.text
  17              	.Ltext0:
  18              		.cfi_sections	.debug_frame
  19              		.section	.text.writeToFETs,"ax",%progbits
  20              		.align	2
  21              		.global	writeToFETs
  22              		.thumb
  23              		.thumb_func
  24              		.type	writeToFETs, %function
  25              	writeToFETs:
  26              	.LFB63:
  27              		.file 1 "main.c"
   1:main.c        **** #define True 1
   2:main.c        **** #define False 0
   3:main.c        **** #include "project.h"
   4:main.c        **** 
   5:main.c        **** #define bitRead(value, bit) (((value) >> (bit)) & 0x01)
   6:main.c        **** 
   7:main.c        **** void writeToFETs(uint8_t status) {
  28              		.loc 1 7 0
  29              		.cfi_startproc
  30              		@ args = 0, pretend = 0, frame = 0
  31              		@ frame_needed = 0, uses_anonymous_args = 0
  32              	.LVL0:
  33 0000 10B5     		push	{r4, lr}
  34              		.cfi_def_cfa_offset 8
  35              		.cfi_offset 4, -8
  36              		.cfi_offset 14, -4
  37 0002 0446     		mov	r4, r0
   8:main.c        ****   LEFT_HA_Write(bitRead(status, 5));
  38              		.loc 1 8 0
  39 0004 C0F34010 		ubfx	r0, r0, #5, #1
  40              	.LVL1:
  41 0008 FFF7FEFF 		bl	LEFT_HA_Write
  42              	.LVL2:
   9:main.c        ****   LEFT_LA_Write(bitRead(status, 4));
  43              		.loc 1 9 0
  44 000c C4F30010 		ubfx	r0, r4, #4, #1
  45 0010 FFF7FEFF 		bl	LEFT_LA_Write
  46              	.LVL3:
  10:main.c        ****   LEFT_HB_Write(bitRead(status, 3));
  47              		.loc 1 10 0
ARM GAS  C:\Users\Fischer\AppData\Local\Temp\ccfAOyXX.s 			page 2


  48 0014 C4F3C000 		ubfx	r0, r4, #3, #1
  49 0018 FFF7FEFF 		bl	LEFT_HB_Write
  50              	.LVL4:
  11:main.c        ****   LEFT_LB_Write(bitRead(status, 2));
  51              		.loc 1 11 0
  52 001c C4F38000 		ubfx	r0, r4, #2, #1
  53 0020 FFF7FEFF 		bl	LEFT_LB_Write
  54              	.LVL5:
  12:main.c        ****   LEFT_HC_Write(bitRead(status, 1));
  55              		.loc 1 12 0
  56 0024 C4F34000 		ubfx	r0, r4, #1, #1
  57 0028 FFF7FEFF 		bl	LEFT_HC_Write
  58              	.LVL6:
  13:main.c        ****   LEFT_LC_Write(bitRead(status, 0));
  59              		.loc 1 13 0
  60 002c 04F00100 		and	r0, r4, #1
  61 0030 FFF7FEFF 		bl	LEFT_LC_Write
  62              	.LVL7:
  63 0034 10BD     		pop	{r4, pc}
  64              		.cfi_endproc
  65              	.LFE63:
  66              		.size	writeToFETs, .-writeToFETs
  67 0036 00BF     		.section	.text.main,"ax",%progbits
  68              		.align	2
  69              		.global	main
  70              		.thumb
  71              		.thumb_func
  72              		.type	main, %function
  73              	main:
  74              	.LFB64:
  14:main.c        **** }
  15:main.c        **** 
  16:main.c        **** 
  17:main.c        **** int main(void) {
  75              		.loc 1 17 0
  76              		.cfi_startproc
  77              		@ args = 0, pretend = 0, frame = 0
  78              		@ frame_needed = 0, uses_anonymous_args = 0
  79 0000 F8B5     		push	{r3, r4, r5, r6, r7, lr}
  80              		.cfi_def_cfa_offset 24
  81              		.cfi_offset 3, -24
  82              		.cfi_offset 4, -20
  83              		.cfi_offset 5, -16
  84              		.cfi_offset 6, -12
  85              		.cfi_offset 7, -8
  86              		.cfi_offset 14, -4
  18:main.c        ****   CyGlobalIntEnable;
  87              		.loc 1 18 0
  88              		.syntax unified
  89              	@ 18 "main.c" 1
  90 0002 62B6     		CPSIE   i
  91              	@ 0 "" 2
  92              		.thumb
  93              		.syntax unified
  94              	.L11:
  95              	.LBB2:
  19:main.c        **** 
ARM GAS  C:\Users\Fischer\AppData\Local\Temp\ccfAOyXX.s 			page 3


  20:main.c        ****   while(True) {
  21:main.c        ****     uint8_t left_direction = LEFT_DIR_Read();
  96              		.loc 1 21 0
  97 0004 FFF7FEFF 		bl	LEFT_DIR_Read
  98              	.LVL8:
  99 0008 0546     		mov	r5, r0
 100              	.LVL9:
  22:main.c        **** 
  23:main.c        ****     //grab hall effect sensor states
  24:main.c        ****     uint8_t left_hall_a = LEFT_HALL_A_Read();
 101              		.loc 1 24 0
 102 000a FFF7FEFF 		bl	LEFT_HALL_A_Read
 103              	.LVL10:
 104 000e 0746     		mov	r7, r0
 105              	.LVL11:
  25:main.c        ****     uint8_t left_hall_b = LEFT_HALL_B_Read();
 106              		.loc 1 25 0
 107 0010 FFF7FEFF 		bl	LEFT_HALL_B_Read
 108              	.LVL12:
 109 0014 0646     		mov	r6, r0
 110              	.LVL13:
  26:main.c        ****     uint8_t left_hall_c = LEFT_HALL_C_Read();
 111              		.loc 1 26 0
 112 0016 FFF7FEFF 		bl	LEFT_HALL_C_Read
 113              	.LVL14:
 114 001a 0446     		mov	r4, r0
 115              	.LVL15:
  27:main.c        **** 
  28:main.c        ****     //check to see what direction we're running in, and select the appropriate commutation table
  29:main.c        ****     if(left_direction == 1) { //use forward commutation table
 116              		.loc 1 29 0
 117 001c 012D     		cmp	r5, #1
 118 001e 23D1     		bne	.L5
  30:main.c        ****       if(left_hall_c && !left_hall_b && left_hall_a) writeToFETs(36); //101
 119              		.loc 1 30 0
 120 0020 20B1     		cbz	r0, .L6
 121              		.loc 1 30 0 is_stmt 0 discriminator 1
 122 0022 1EB9     		cbnz	r6, .L6
 123              		.loc 1 30 0 discriminator 2
 124 0024 17B1     		cbz	r7, .L6
 125              		.loc 1 30 0 discriminator 3
 126 0026 2420     		movs	r0, #36
 127              	.LVL16:
 128 0028 FFF7FEFF 		bl	writeToFETs
 129              	.LVL17:
 130              	.L6:
  31:main.c        ****       if(left_hall_c && !left_hall_b && !left_hall_a) writeToFETs(6); //100
 131              		.loc 1 31 0 is_stmt 1
 132 002c 24B1     		cbz	r4, .L7
 133              		.loc 1 31 0 is_stmt 0 discriminator 1
 134 002e 1EB9     		cbnz	r6, .L7
 135              		.loc 1 31 0 discriminator 2
 136 0030 17B9     		cbnz	r7, .L7
 137              		.loc 1 31 0 discriminator 3
 138 0032 0620     		movs	r0, #6
 139 0034 FFF7FEFF 		bl	writeToFETs
 140              	.LVL18:
ARM GAS  C:\Users\Fischer\AppData\Local\Temp\ccfAOyXX.s 			page 4


 141              	.L7:
  32:main.c        ****       if(left_hall_c && left_hall_b && !left_hall_a) writeToFETs(18); //110
 142              		.loc 1 32 0 is_stmt 1
 143 0038 24B1     		cbz	r4, .L8
 144              		.loc 1 32 0 is_stmt 0 discriminator 1
 145 003a 1EB1     		cbz	r6, .L8
 146              		.loc 1 32 0 discriminator 2
 147 003c 17B9     		cbnz	r7, .L8
 148              		.loc 1 32 0 discriminator 3
 149 003e 1220     		movs	r0, #18
 150 0040 FFF7FEFF 		bl	writeToFETs
 151              	.LVL19:
 152              	.L8:
  33:main.c        ****       if(!left_hall_c && left_hall_b && !left_hall_a) writeToFETs(24); //010
 153              		.loc 1 33 0 is_stmt 1
 154 0044 24B9     		cbnz	r4, .L9
 155              		.loc 1 33 0 is_stmt 0 discriminator 1
 156 0046 1EB1     		cbz	r6, .L9
 157              		.loc 1 33 0 discriminator 2
 158 0048 17B9     		cbnz	r7, .L9
 159              		.loc 1 33 0 discriminator 3
 160 004a 1820     		movs	r0, #24
 161 004c FFF7FEFF 		bl	writeToFETs
 162              	.LVL20:
 163              	.L9:
  34:main.c        ****       if(!left_hall_c && left_hall_b && left_hall_a) writeToFETs(9); //011
 164              		.loc 1 34 0 is_stmt 1
 165 0050 24B9     		cbnz	r4, .L10
 166              		.loc 1 34 0 is_stmt 0 discriminator 1
 167 0052 1EB1     		cbz	r6, .L10
 168              		.loc 1 34 0 discriminator 2
 169 0054 17B1     		cbz	r7, .L10
 170              		.loc 1 34 0 discriminator 3
 171 0056 0920     		movs	r0, #9
 172 0058 FFF7FEFF 		bl	writeToFETs
 173              	.LVL21:
 174              	.L10:
  35:main.c        ****       if(!left_hall_c && !left_hall_b && left_hall_a) writeToFETs(33); //001
 175              		.loc 1 35 0 is_stmt 1
 176 005c 24B9     		cbnz	r4, .L5
 177              		.loc 1 35 0 is_stmt 0 discriminator 1
 178 005e 1EB9     		cbnz	r6, .L5
 179              		.loc 1 35 0 discriminator 2
 180 0060 17B1     		cbz	r7, .L5
 181              		.loc 1 35 0 discriminator 3
 182 0062 2120     		movs	r0, #33
 183 0064 FFF7FEFF 		bl	writeToFETs
 184              	.LVL22:
 185              	.L5:
  36:main.c        ****     }
  37:main.c        **** 
  38:main.c        ****     if(left_direction == 0) { //use reverse commutation table
 186              		.loc 1 38 0 is_stmt 1
 187 0068 002D     		cmp	r5, #0
 188 006a CBD1     		bne	.L11
  39:main.c        ****       if(!left_hall_c && !left_hall_b && left_hall_a) writeToFETs(18); //001
 189              		.loc 1 39 0
ARM GAS  C:\Users\Fischer\AppData\Local\Temp\ccfAOyXX.s 			page 5


 190 006c 24B9     		cbnz	r4, .L12
 191              		.loc 1 39 0 is_stmt 0 discriminator 1
 192 006e 1EB9     		cbnz	r6, .L12
 193              		.loc 1 39 0 discriminator 2
 194 0070 17B1     		cbz	r7, .L12
 195              		.loc 1 39 0 discriminator 3
 196 0072 1220     		movs	r0, #18
 197 0074 FFF7FEFF 		bl	writeToFETs
 198              	.LVL23:
 199              	.L12:
  40:main.c        ****       if(!left_hall_c && left_hall_b && !left_hall_a) writeToFETs(36); //010
 200              		.loc 1 40 0 is_stmt 1
 201 0078 24B9     		cbnz	r4, .L13
 202              		.loc 1 40 0 is_stmt 0 discriminator 1
 203 007a 1EB1     		cbz	r6, .L13
 204              		.loc 1 40 0 discriminator 2
 205 007c 17B9     		cbnz	r7, .L13
 206              		.loc 1 40 0 discriminator 3
 207 007e 2420     		movs	r0, #36
 208 0080 FFF7FEFF 		bl	writeToFETs
 209              	.LVL24:
 210              	.L13:
  41:main.c        ****       if(!left_hall_c && left_hall_b && left_hall_a) writeToFETs(6); //011
 211              		.loc 1 41 0 is_stmt 1
 212 0084 24B9     		cbnz	r4, .L14
 213              		.loc 1 41 0 is_stmt 0 discriminator 1
 214 0086 1EB1     		cbz	r6, .L14
 215              		.loc 1 41 0 discriminator 2
 216 0088 17B1     		cbz	r7, .L14
 217              		.loc 1 41 0 discriminator 3
 218 008a 0620     		movs	r0, #6
 219 008c FFF7FEFF 		bl	writeToFETs
 220              	.LVL25:
 221              	.L14:
  42:main.c        ****       if(left_hall_c && !left_hall_b && !left_hall_a) writeToFETs(9); //100
 222              		.loc 1 42 0 is_stmt 1
 223 0090 24B1     		cbz	r4, .L15
 224              		.loc 1 42 0 is_stmt 0 discriminator 1
 225 0092 1EB9     		cbnz	r6, .L15
 226              		.loc 1 42 0 discriminator 2
 227 0094 17B9     		cbnz	r7, .L15
 228              		.loc 1 42 0 discriminator 3
 229 0096 0920     		movs	r0, #9
 230 0098 FFF7FEFF 		bl	writeToFETs
 231              	.LVL26:
 232              	.L15:
  43:main.c        ****       if(left_hall_c && !left_hall_b && left_hall_a) writeToFETs(24); //101
 233              		.loc 1 43 0 is_stmt 1
 234 009c 24B1     		cbz	r4, .L16
 235              		.loc 1 43 0 is_stmt 0 discriminator 1
 236 009e 1EB9     		cbnz	r6, .L16
 237              		.loc 1 43 0 discriminator 2
 238 00a0 17B1     		cbz	r7, .L16
 239              		.loc 1 43 0 discriminator 3
 240 00a2 1820     		movs	r0, #24
 241 00a4 FFF7FEFF 		bl	writeToFETs
 242              	.LVL27:
ARM GAS  C:\Users\Fischer\AppData\Local\Temp\ccfAOyXX.s 			page 6


 243              	.L16:
  44:main.c        ****       if(left_hall_c && left_hall_b && !left_hall_a) writeToFETs(33); //110
 244              		.loc 1 44 0 is_stmt 1
 245 00a8 002C     		cmp	r4, #0
 246 00aa ABD0     		beq	.L11
 247              		.loc 1 44 0 is_stmt 0 discriminator 1
 248 00ac 002E     		cmp	r6, #0
 249 00ae A9D0     		beq	.L11
 250              		.loc 1 44 0 discriminator 2
 251 00b0 002F     		cmp	r7, #0
 252 00b2 A7D1     		bne	.L11
 253              		.loc 1 44 0 discriminator 3
 254 00b4 2120     		movs	r0, #33
 255 00b6 FFF7FEFF 		bl	writeToFETs
 256              	.LVL28:
 257 00ba A3E7     		b	.L11
 258              	.LBE2:
 259              		.cfi_endproc
 260              	.LFE64:
 261              		.size	main, .-main
 262              		.text
 263              	.Letext0:
 264              		.file 2 "c:\\program files (x86)\\cypress\\psoc creator\\4.2\\psoc creator\\import\\gnu\\arm\\5.4.
 265              		.file 3 "c:\\program files (x86)\\cypress\\psoc creator\\4.2\\psoc creator\\import\\gnu\\arm\\5.4.
 266              		.file 4 "Generated_Source\\PSoC5/LEFT_HA.h"
 267              		.file 5 "Generated_Source\\PSoC5/LEFT_LA.h"
 268              		.file 6 "Generated_Source\\PSoC5/LEFT_HB.h"
 269              		.file 7 "Generated_Source\\PSoC5/LEFT_LB.h"
 270              		.file 8 "Generated_Source\\PSoC5/LEFT_HC.h"
 271              		.file 9 "Generated_Source\\PSoC5/LEFT_LC.h"
 272              		.file 10 "Generated_Source\\PSoC5/LEFT_DIR.h"
 273              		.file 11 "Generated_Source\\PSoC5/LEFT_HALL_A.h"
 274              		.file 12 "Generated_Source\\PSoC5/LEFT_HALL_B.h"
 275              		.file 13 "Generated_Source\\PSoC5/LEFT_HALL_C.h"
 276              		.file 14 "Generated_Source\\PSoC5/core_cm3.h"