ARM GAS  C:\Users\Fischer\AppData\Local\Temp\ccdbBa7G.s 			page 1


   1              		.syntax unified
   2              		.cpu cortex-m3
   3              		.fpu softvfp
   4              		.eabi_attribute 20, 1
   5              		.eabi_attribute 21, 1
   6              		.eabi_attribute 23, 3
   7              		.eabi_attribute 24, 1
   8              		.eabi_attribute 25, 1
   9              		.eabi_attribute 26, 1
  10              		.eabi_attribute 30, 1
  11              		.eabi_attribute 34, 1
  12              		.eabi_attribute 18, 4
  13              		.thumb
  14              		.syntax unified
  15              		.file	"main.c"
  16              		.text
  17              	.Ltext0:
  18              		.cfi_sections	.debug_frame
  19              		.section	.text.getState,"ax",%progbits
  20              		.align	2
  21              		.global	getState
  22              		.thumb
  23              		.thumb_func
  24              		.type	getState, %function
  25              	getState:
  26              	.LFB63:
  27              		.file 1 "main.c"
   1:main.c        **** #include "project.h"
   2:main.c        **** #define True 1 
   3:main.c        **** #define False 0
   4:main.c        **** #define FORWARD 1
   5:main.c        **** #define REVERSE 0
   6:main.c        **** 
   7:main.c        **** uint8_t getState(uint8_t port) {
  28              		.loc 1 7 0
  29              		.cfi_startproc
  30              		@ args = 0, pretend = 0, frame = 0
  31              		@ frame_needed = 0, uses_anonymous_args = 0
  32              	.LVL0:
  33 0000 70B5     		push	{r4, r5, r6, lr}
  34              		.cfi_def_cfa_offset 16
  35              		.cfi_offset 4, -16
  36              		.cfi_offset 5, -12
  37              		.cfi_offset 6, -8
  38              		.cfi_offset 14, -4
  39 0002 0446     		mov	r4, r0
  40              	.LVL1:
   8:main.c        ****     //Returns a byte containing the current rotational position of the motor.
   9:main.c        **** 
  10:main.c        ****     uint8_t a = 0;
  11:main.c        ****     uint8_t b = 0;
  12:main.c        ****     uint8_t c = 0;
  13:main.c        **** 
  14:main.c        **** 
  15:main.c        ****     // casting to an 8-bit byte just because the cypress documentation is garbage and doesn't say
  16:main.c        ****     // whether or not it returns a bool or uint8_t
  17:main.c        ****     if(port == 1){
ARM GAS  C:\Users\Fischer\AppData\Local\Temp\ccdbBa7G.s 			page 2


  41              		.loc 1 17 0
  42 0004 0128     		cmp	r0, #1
  43 0006 08D1     		bne	.L5
  18:main.c        ****         a = HALL1_A_Read(); 
  44              		.loc 1 18 0
  45 0008 FFF7FEFF 		bl	HALL1_A_Read
  46              	.LVL2:
  47 000c 0546     		mov	r5, r0
  48              	.LVL3:
  19:main.c        ****         b = HALL1_B_Read();
  49              		.loc 1 19 0
  50 000e FFF7FEFF 		bl	HALL1_B_Read
  51              	.LVL4:
  52 0012 0646     		mov	r6, r0
  53              	.LVL5:
  20:main.c        ****         c = HALL1_C_Read();
  54              		.loc 1 20 0
  55 0014 FFF7FEFF 		bl	HALL1_C_Read
  56              	.LVL6:
  57 0018 02E0     		b	.L2
  58              	.LVL7:
  59              	.L5:
  12:main.c        **** 
  60              		.loc 1 12 0
  61 001a 0020     		movs	r0, #0
  62              	.LVL8:
  11:main.c        ****     uint8_t c = 0;
  63              		.loc 1 11 0
  64 001c 0646     		mov	r6, r0
  10:main.c        ****     uint8_t b = 0;
  65              		.loc 1 10 0
  66 001e 0546     		mov	r5, r0
  67              	.LVL9:
  68              	.L2:
  21:main.c        ****     }
  22:main.c        **** 
  23:main.c        ****     if(port == 2){
  69              		.loc 1 23 0
  70 0020 022C     		cmp	r4, #2
  71 0022 07D1     		bne	.L3
  24:main.c        ****         a = HALL2_A_Read();
  72              		.loc 1 24 0
  73 0024 FFF7FEFF 		bl	HALL2_A_Read
  74              	.LVL10:
  75 0028 0546     		mov	r5, r0
  76              	.LVL11:
  25:main.c        ****         b = HALL2_B_Read();
  77              		.loc 1 25 0
  78 002a FFF7FEFF 		bl	HALL2_B_Read
  79              	.LVL12:
  80 002e 0646     		mov	r6, r0
  81              	.LVL13:
  26:main.c        ****         c = HALL2_C_Read();
  82              		.loc 1 26 0
  83 0030 FFF7FEFF 		bl	HALL2_C_Read
  84              	.LVL14:
  85              	.L3:
ARM GAS  C:\Users\Fischer\AppData\Local\Temp\ccdbBa7G.s 			page 3


  27:main.c        ****     }
  28:main.c        **** 
  29:main.c        ****     return ( a || (b << 1) || (c << 2) );
  86              		.loc 1 29 0
  87 0034 2DB9     		cbnz	r5, .L6
  88              		.loc 1 29 0 is_stmt 0 discriminator 2
  89 0036 7300     		lsls	r3, r6, #1
  90 0038 05D1     		bne	.L7
  91              		.loc 1 29 0 discriminator 4
  92 003a 8000     		lsls	r0, r0, #2
  93              	.LVL15:
  94 003c 04D0     		beq	.L4
  95              		.loc 1 29 0
  96 003e 0120     		movs	r0, #1
  97 0040 02E0     		b	.L4
  98              	.LVL16:
  99              	.L6:
 100 0042 0120     		movs	r0, #1
 101              	.LVL17:
 102 0044 00E0     		b	.L4
 103              	.LVL18:
 104              	.L7:
 105 0046 0120     		movs	r0, #1
 106              	.LVL19:
 107              	.L4:
  30:main.c        **** }
 108              		.loc 1 30 0 is_stmt 1 discriminator 8
 109 0048 00F0FD00 		and	r0, r0, #253
 110 004c 70BD     		pop	{r4, r5, r6, pc}
 111              		.cfi_endproc
 112              	.LFE63:
 113              		.size	getState, .-getState
 114 004e 00BF     		.section	.text.advanceState,"ax",%progbits
 115              		.align	2
 116              		.global	advanceState
 117              		.thumb
 118              		.thumb_func
 119              		.type	advanceState, %function
 120              	advanceState:
 121              	.LFB64:
  31:main.c        **** 
  32:main.c        **** uint8_t advanceState(uint8_t current_state, uint8_t direction, uint8_t port) {
 122              		.loc 1 32 0
 123              		.cfi_startproc
 124              		@ args = 0, pretend = 0, frame = 0
 125              		@ frame_needed = 0, uses_anonymous_args = 0
 126              	.LVL20:
 127 0000 F8B5     		push	{r3, r4, r5, r6, r7, lr}
 128              		.cfi_def_cfa_offset 24
 129              		.cfi_offset 3, -24
 130              		.cfi_offset 4, -20
 131              		.cfi_offset 5, -16
 132              		.cfi_offset 6, -12
 133              		.cfi_offset 7, -8
 134              		.cfi_offset 14, -4
 135              	.LVL21:
  33:main.c        ****     //Takes in the current state of the motor and computes the next state of the
ARM GAS  C:\Users\Fischer\AppData\Local\Temp\ccdbBa7G.s 			page 4


  34:main.c        ****     //drive FETS, and returns this state.
  35:main.c        ****     //Set direction to true for forward, and false for backwards.
  36:main.c        **** 
  37:main.c        ****     //Find what the next state to be commutated is
  38:main.c        ****     uint8_t advanceState = 0;
  39:main.c        **** 
  40:main.c        ****     if(direction == True) advanceState = (current_state + 0x01) % 0x07;
 136              		.loc 1 40 0
 137 0002 0129     		cmp	r1, #1
 138 0004 0CD1     		bne	.L15
 139              		.loc 1 40 0 is_stmt 0 discriminator 1
 140 0006 451C     		adds	r5, r0, #1
 141 0008 134E     		ldr	r6, .L17
 142 000a 85FB0667 		smull	r6, r7, r5, r6
 143 000e EC19     		adds	r4, r5, r7
 144 0010 EB17     		asrs	r3, r5, #31
 145 0012 C3EBA404 		rsb	r4, r3, r4, asr #2
 146 0016 C4EBC404 		rsb	r4, r4, r4, lsl #3
 147 001a 2C1B     		subs	r4, r5, r4
 148 001c E4B2     		uxtb	r4, r4
 149              	.LVL22:
 150 001e 00E0     		b	.L10
 151              	.LVL23:
 152              	.L15:
  38:main.c        **** 
 153              		.loc 1 38 0 is_stmt 1
 154 0020 0024     		movs	r4, #0
 155              	.LVL24:
 156              	.L10:
  41:main.c        ****     if(direction == False) advanceState = (current_state + 0x06) % 0x07;
 157              		.loc 1 41 0
 158 0022 59B9     		cbnz	r1, .L11
 159              		.loc 1 41 0 is_stmt 0 discriminator 1
 160 0024 0630     		adds	r0, r0, #6
 161              	.LVL25:
 162 0026 0C4C     		ldr	r4, .L17
 163              	.LVL26:
 164 0028 80FB0445 		smull	r4, r5, r0, r4
 165 002c 4419     		adds	r4, r0, r5
 166 002e C317     		asrs	r3, r0, #31
 167 0030 C3EBA404 		rsb	r4, r3, r4, asr #2
 168 0034 C4EBC404 		rsb	r4, r4, r4, lsl #3
 169 0038 041B     		subs	r4, r0, r4
 170 003a E4B2     		uxtb	r4, r4
 171              	.LVL27:
 172              	.L11:
  42:main.c        **** 
  43:main.c        **** 
  44:main.c        ****     //Send the new state to the given motor
  45:main.c        ****     switch (port) {
 173              		.loc 1 45 0 is_stmt 1
 174 003c 012A     		cmp	r2, #1
 175 003e 02D0     		beq	.L13
 176 0040 022A     		cmp	r2, #2
 177 0042 04D0     		beq	.L14
 178 0044 06E0     		b	.L12
 179              	.L13:
ARM GAS  C:\Users\Fischer\AppData\Local\Temp\ccdbBa7G.s 			page 5


  46:main.c        ****     case 1:
  47:main.c        ****         DRIVE1_Write(advanceState);
 180              		.loc 1 47 0
 181 0046 2046     		mov	r0, r4
 182 0048 FFF7FEFF 		bl	DRIVE1_Write
 183              	.LVL28:
  48:main.c        ****         break;
 184              		.loc 1 48 0
 185 004c 02E0     		b	.L12
 186              	.LVL29:
 187              	.L14:
  49:main.c        **** 
  50:main.c        ****     case 2:
  51:main.c        ****         DRIVE2_Write(advanceState);
 188              		.loc 1 51 0
 189 004e 2046     		mov	r0, r4
 190 0050 FFF7FEFF 		bl	DRIVE2_Write
 191              	.LVL30:
 192              	.L12:
  52:main.c        ****         break;
  53:main.c        ****     
  54:main.c        ****     default:
  55:main.c        ****         break;
  56:main.c        ****     }
  57:main.c        ****     return advanceState; //return the new state of the drive FETs. 
  58:main.c        **** }
 193              		.loc 1 58 0
 194 0054 2046     		mov	r0, r4
 195 0056 F8BD     		pop	{r3, r4, r5, r6, r7, pc}
 196              	.LVL31:
 197              	.L18:
 198              		.align	2
 199              	.L17:
 200 0058 93244992 		.word	-1840700269
 201              		.cfi_endproc
 202              	.LFE64:
 203              		.size	advanceState, .-advanceState
 204              		.section	.text.init,"ax",%progbits
 205              		.align	2
 206              		.global	init
 207              		.thumb
 208              		.thumb_func
 209              		.type	init, %function
 210              	init:
 211              	.LFB65:
  59:main.c        **** 
  60:main.c        **** void init(void) {
 212              		.loc 1 60 0
 213              		.cfi_startproc
 214              		@ args = 0, pretend = 0, frame = 0
 215              		@ frame_needed = 0, uses_anonymous_args = 0
 216              		@ link register save eliminated.
  61:main.c        ****     CyGlobalIntEnable; //enable global interrupts
 217              		.loc 1 61 0
 218              		.syntax unified
 219              	@ 61 "main.c" 1
 220 0000 62B6     		CPSIE   i
ARM GAS  C:\Users\Fischer\AppData\Local\Temp\ccdbBa7G.s 			page 6


 221              	@ 0 "" 2
 222              		.thumb
 223              		.syntax unified
 224 0002 7047     		bx	lr
 225              		.cfi_endproc
 226              	.LFE65:
 227              		.size	init, .-init
 228              		.section	.text.loop,"ax",%progbits
 229              		.align	2
 230              		.global	loop
 231              		.thumb
 232              		.thumb_func
 233              		.type	loop, %function
 234              	loop:
 235              	.LFB66:
  62:main.c        **** }
  63:main.c        **** 
  64:main.c        **** void loop(void) {
 236              		.loc 1 64 0
 237              		.cfi_startproc
 238              		@ args = 0, pretend = 0, frame = 0
 239              		@ frame_needed = 0, uses_anonymous_args = 0
 240 0000 08B5     		push	{r3, lr}
 241              		.cfi_def_cfa_offset 8
 242              		.cfi_offset 3, -8
 243              		.cfi_offset 14, -4
  65:main.c        ****     uint8_t motor1_current_state = getState(1);
 244              		.loc 1 65 0
 245 0002 0120     		movs	r0, #1
 246 0004 FFF7FEFF 		bl	getState
 247              	.LVL32:
  66:main.c        ****     advanceState(motor1_current_state, FORWARD, 1);    
 248              		.loc 1 66 0
 249 0008 0122     		movs	r2, #1
 250 000a 1146     		mov	r1, r2
 251 000c FFF7FEFF 		bl	advanceState
 252              	.LVL33:
 253 0010 08BD     		pop	{r3, pc}
 254              		.cfi_endproc
 255              	.LFE66:
 256              		.size	loop, .-loop
 257 0012 00BF     		.section	.text.main,"ax",%progbits
 258              		.align	2
 259              		.global	main
 260              		.thumb
 261              		.thumb_func
 262              		.type	main, %function
 263              	main:
 264              	.LFB67:
  67:main.c        **** }
  68:main.c        **** 
  69:main.c        **** int main(void){
 265              		.loc 1 69 0
 266              		.cfi_startproc
 267              		@ Volatile: function does not return.
 268              		@ args = 0, pretend = 0, frame = 0
 269              		@ frame_needed = 0, uses_anonymous_args = 0
ARM GAS  C:\Users\Fischer\AppData\Local\Temp\ccdbBa7G.s 			page 7


 270 0000 08B5     		push	{r3, lr}
 271              		.cfi_def_cfa_offset 8
 272              		.cfi_offset 3, -8
 273              		.cfi_offset 14, -4
  70:main.c        ****     init();
 274              		.loc 1 70 0
 275 0002 FFF7FEFF 		bl	init
 276              	.LVL34:
 277              	.L23:
  71:main.c        **** 
  72:main.c        ****     while(True) {
  73:main.c        ****         loop();
 278              		.loc 1 73 0 discriminator 1
 279 0006 FFF7FEFF 		bl	loop
 280              	.LVL35:
 281 000a FCE7     		b	.L23
 282              		.cfi_endproc
 283              	.LFE67:
 284              		.size	main, .-main
 285              		.text
 286              	.Letext0:
 287              		.file 2 "c:\\program files (x86)\\cypress\\psoc creator\\4.2\\psoc creator\\import\\gnu\\arm\\5.4.
 288              		.file 3 "c:\\program files (x86)\\cypress\\psoc creator\\4.2\\psoc creator\\import\\gnu\\arm\\5.4.
 289              		.file 4 "Generated_Source\\PSoC5/HALL1_A.h"
 290              		.file 5 "Generated_Source\\PSoC5/HALL1_B.h"
 291              		.file 6 "Generated_Source\\PSoC5/HALL1_C.h"
 292              		.file 7 "Generated_Source\\PSoC5/HALL2_A.h"
 293              		.file 8 "Generated_Source\\PSoC5/HALL2_B.h"
 294              		.file 9 "Generated_Source\\PSoC5/HALL2_C.h"
 295              		.file 10 "Generated_Source\\PSoC5/DRIVE1.h"
 296              		.file 11 "Generated_Source\\PSoC5/DRIVE2.h"
 297              		.file 12 "Generated_Source\\PSoC5/core_cm3.h"